ccollections
defaultdict
p0
(c__builtin__
int
p1
tp2
Rp3
I1
I2395762
sI2
I1268076
sI3
I741514
sI4
I475497
sI5
I325818
sI6
I233751
sI7
I174191
sI8
I133389
sI9
I104388
sI10
I83708
sI11
I68494
sI12
I56249
sI13
I47025
sI14
I40022
sI15
I33844
sI16
I29316
sI17
I25633
sI18
I22143
sI19
I19251
sI20
I17261
sI21
I15238
sI22
I13554
sI23
I12265
sI24
I10953
sI25
I9680
sI26
I9036
sI27
I8207
sI28
I7420
sI29
I6788
sI30
I6333
sI31
I5759
sI32
I5215
sI33
I4749
sI34
I4538
sI35
I4316
sI36
I3941
sI37
I3646
sI38
I3439
sI39
I3291
sI40
I3032
sI41
I2929
sI42
I2643
sI43
I2589
sI44
I2345
sI45
I2246
sI46
I2079
sI47
I2017
sI48
I1935
sI49
I1860
sI50
I1672
sI51
I1585
sI52
I1645
sI53
I1517
sI54
I1461
sI55
I1340
sI56
I1363
sI57
I1273
sI58
I1261
sI59
I1202
sI60
I1126
sI61
I1091
sI62
I1036
sI63
I964
sI64
I965
sI65
I974
sI66
I922
sI67
I862
sI68
I883
sI69
I815
sI70
I777
sI71
I731
sI72
I768
sI73
I690
sI74
I697
sI75
I619
sI76
I638
sI77
I596
sI78
I579
sI79
I632
sI80
I539
sI81
I573
sI82
I523
sI83
I546
sI84
I519
sI85
I530
sI86
I481
sI87
I453
sI88
I458
sI89
I458
sI90
I404
sI91
I439
sI92
I442
sI93
I382
sI94
I430
sI95
I366
sI96
I374
sI97
I375
sI98
I354
sI99
I349
sI100
I358
sI101
I363
sI102
I328
sI103
I310
sI104
I289
sI105
I303
sI106
I309
sI107
I284
sI108
I288
sI109
I285
sI110
I258
sI111
I279
sI112
I287
sI113
I282
sI114
I218
sI115
I234
sI116
I244
sI117
I251
sI118
I231
sI119
I240
sI120
I231
sI121
I235
sI122
I233
sI123
I230
sI124
I228
sI125
I209
sI126
I186
sI127
I216
sI128
I191
sI129
I178
sI130
I179
sI131
I200
sI132
I178
sI133
I190
sI134
I173
sI135
I179
sI136
I163
sI137
I204
sI138
I198
sI139
I160
sI140
I196
sI141
I172
sI142
I163
sI143
I140
sI144
I162
sI145
I147
sI146
I135
sI147
I151
sI148
I146
sI149
I127
sI150
I152
sI151
I135
sI152
I152
sI153
I117
sI154
I140
sI155
I131
sI156
I129
sI157
I134
sI158
I111
sI159
I124
sI160
I113
sI161
I131
sI162
I120
sI163
I131
sI164
I111
sI165
I127
sI166
I102
sI167
I106
sI168
I103
sI169
I89
sI170
I112
sI171
I105
sI172
I103
sI173
I86
sI174
I109
sI175
I88
sI176
I107
sI177
I98
sI178
I104
sI179
I90
sI180
I90
sI181
I104
sI182
I100
sI183
I104
sI184
I85
sI185
I94
sI186
I79
sI187
I77
sI188
I94
sI189
I83
sI190
I76
sI191
I91
sI192
I87
sI193
I99
sI194
I91
sI195
I85
sI196
I83
sI197
I79
sI198
I83
sI199
I87
sI200
I87
sI201
I87
sI202
I78
sI203
I86
sI204
I62
sI205
I80
sI206
I70
sI207
I86
sI208
I73
sI209
I65
sI210
I65
sI211
I78
sI212
I60
sI213
I75
sI214
I66
sI215
I71
sI216
I71
sI217
I69
sI218
I78
sI219
I69
sI220
I90
sI221
I67
sI222
I62
sI223
I63
sI224
I58
sI225
I61
sI226
I48
sI227
I58
sI228
I64
sI229
I55
sI230
I65
sI231
I52
sI232
I67
sI233
I64
sI234
I56
sI235
I60
sI236
I47
sI237
I51
sI238
I47
sI239
I59
sI240
I57
sI241
I49
sI242
I47
sI243
I51
sI244
I61
sI245
I48
sI246
I43
sI247
I46
sI248
I51
sI249
I58
sI250
I48
sI251
I52
sI252
I48
sI253
I47
sI254
I37
sI255
I46
sI256
I47
sI257
I52
sI258
I54
sI259
I55
sI260
I43
sI261
I47
sI262
I44
sI263
I43
sI264
I49
sI265
I36
sI266
I40
sI267
I38
sI268
I50
sI269
I30
sI270
I37
sI271
I37
sI272
I45
sI273
I39
sI274
I45
sI275
I34
sI276
I46
sI277
I36
sI278
I47
sI279
I37
sI280
I31
sI281
I51
sI282
I42
sI283
I48
sI284
I36
sI285
I33
sI286
I36
sI287
I25
sI288
I35
sI289
I41
sI290
I27
sI291
I39
sI292
I31
sI293
I28
sI294
I35
sI295
I40
sI296
I36
sI297
I32
sI298
I39
sI299
I21
sI300
I32
sI301
I37
sI302
I31
sI303
I29
sI304
I25
sI305
I32
sI306
I40
sI307
I17
sI308
I30
sI309
I33
sI310
I29
sI311
I19
sI312
I31
sI313
I27
sI314
I25
sI315
I31
sI316
I28
sI317
I27
sI318
I26
sI319
I25
sI320
I33
sI321
I29
sI322
I28
sI323
I33
sI324
I25
sI325
I19
sI326
I20
sI327
I29
sI328
I25
sI329
I26
sI330
I36
sI331
I28
sI332
I25
sI333
I24
sI334
I36
sI335
I22
sI336
I28
sI337
I27
sI338
I32
sI339
I37
sI340
I28
sI341
I24
sI342
I29
sI343
I24
sI344
I35
sI345
I22
sI346
I22
sI347
I21
sI348
I18
sI349
I23
sI350
I19
sI351
I24
sI352
I27
sI353
I25
sI354
I19
sI355
I20
sI356
I18
sI357
I18
sI358
I18
sI359
I19
sI360
I23
sI361
I22
sI362
I22
sI363
I19
sI364
I21
sI365
I24
sI366
I29
sI367
I21
sI368
I20
sI369
I25
sI370
I17
sI371
I26
sI372
I19
sI373
I22
sI374
I18
sI375
I15
sI376
I26
sI377
I23
sI378
I15
sI379
I18
sI380
I20
sI381
I19
sI382
I15
sI383
I19
sI384
I17
sI385
I19
sI386
I17
sI387
I20
sI388
I14
sI389
I23
sI390
I20
sI391
I16
sI392
I25
sI393
I21
sI394
I11
sI395
I11
sI396
I18
sI397
I16
sI398
I17
sI399
I14
sI400
I21
sI401
I20
sI402
I13
sI403
I21
sI404
I20
sI405
I14
sI406
I20
sI407
I16
sI408
I17
sI409
I19
sI410
I14
sI411
I14
sI412
I15
sI413
I18
sI414
I17
sI415
I16
sI416
I20
sI417
I17
sI418
I18
sI419
I22
sI420
I25
sI421
I20
sI422
I18
sI423
I11
sI424
I13
sI425
I17
sI426
I7
sI427
I14
sI428
I10
sI429
I10
sI430
I8
sI431
I17
sI432
I18
sI433
I16
sI434
I12
sI435
I17
sI436
I15
sI437
I17
sI438
I12
sI439
I21
sI440
I16
sI441
I21
sI442
I15
sI443
I16
sI444
I14
sI445
I11
sI446
I19
sI447
I12
sI448
I10
sI449
I13
sI450
I16
sI451
I18
sI452
I15
sI453
I14
sI454
I16
sI455
I16
sI456
I12
sI457
I14
sI458
I12
sI459
I12
sI460
I17
sI461
I15
sI462
I10
sI463
I12
sI464
I12
sI465
I11
sI466
I21
sI467
I9
sI468
I11
sI469
I22
sI470
I12
sI471
I11
sI472
I13
sI473
I13
sI474
I11
sI475
I13
sI476
I9
sI477
I9
sI478
I14
sI479
I14
sI480
I9
sI481
I12
sI482
I18
sI483
I11
sI484
I16
sI485
I10
sI486
I15
sI487
I10
sI488
I18
sI489
I11
sI490
I12
sI491
I10
sI492
I12
sI493
I18
sI494
I11
sI495
I19
sI496
I9
sI497
I20
sI498
I14
sI499
I10
sI500
I13
sI501
I11
sI502
I13
sI503
I20
sI504
I6
sI505
I10
sI506
I22
sI507
I15
sI508
I18
sI509
I11
sI510
I15
sI511
I10
sI512
I8
sI513
I8
sI514
I17
sI515
I10
sI516
I10
sI517
I14
sI518
I7
sI519
I19
sI520
I10
sI521
I12
sI522
I8
sI523
I7
sI524
I8
sI525
I13
sI526
I18
sI527
I9
sI528
I9
sI529
I15
sI530
I7
sI531
I14
sI532
I9
sI533
I2
sI534
I9
sI535
I7
sI536
I10
sI537
I7
sI538
I12
sI539
I8
sI540
I10
sI541
I6
sI542
I12
sI543
I13
sI544
I8
sI545
I6
sI546
I11
sI547
I10
sI548
I13
sI549
I8
sI550
I5
sI551
I5
sI552
I11
sI553
I11
sI554
I8
sI555
I20
sI556
I9
sI557
I8
sI558
I12
sI559
I10
sI560
I11
sI561
I10
sI562
I6
sI563
I14
sI564
I9
sI565
I11
sI566
I9
sI567
I9
sI568
I9
sI569
I7
sI570
I10
sI571
I11
sI572
I10
sI573
I10
sI574
I6
sI575
I3
sI576
I12
sI577
I5
sI578
I8
sI579
I7
sI580
I13
sI581
I6
sI582
I5
sI583
I7
sI584
I9
sI585
I7
sI586
I12
sI587
I5
sI588
I4
sI589
I9
sI16974
I1
sI591
I8
sI592
I8
sI593
I12
sI594
I5
sI595
I8
sI596
I8
sI597
I10
sI598
I4
sI599
I7
sI600
I5
sI601
I4
sI602
I1
sI603
I10
sI604
I8
sI605
I5
sI606
I5
sI607
I8
sI608
I8
sI609
I10
sI610
I7
sI611
I6
sI612
I3
sI613
I2
sI614
I4
sI615
I5
sI616
I7
sI617
I2
sI618
I5
sI619
I10
sI620
I5
sI621
I12
sI622
I8
sI623
I7
sI624
I3
sI625
I10
sI626
I9
sI627
I4
sI628
I3
sI629
I10
sI630
I4
sI631
I9
sI632
I5
sI633
I7
sI634
I7
sI635
I2
sI636
I12
sI637
I2
sI638
I8
sI639
I2
sI640
I6
sI641
I6
sI642
I5
sI643
I4
sI644
I3
sI645
I9
sI646
I7
sI647
I4
sI648
I4
sI649
I8
sI650
I7
sI651
I8
sI652
I7
sI653
I7
sI654
I7
sI655
I6
sI656
I9
sI657
I10
sI658
I8
sI659
I7
sI660
I4
sI661
I7
sI662
I6
sI663
I6
sI664
I3
sI665
I3
sI666
I6
sI667
I5
sI668
I5
sI669
I10
sI670
I4
sI671
I3
sI672
I6
sI673
I4
sI674
I1
sI675
I6
sI676
I5
sI677
I5
sI678
I7
sI679
I4
sI680
I7
sI681
I4
sI682
I4
sI683
I4
sI684
I2
sI685
I6
sI686
I4
sI687
I6
sI688
I8
sI8881
I1
sI690
I3
sI691
I4
sI692
I5
sI693
I2
sI694
I7
sI695
I6
sI696
I8
sI697
I5
sI698
I4
sI699
I5
sI700
I6
sI701
I5
sI702
I4
sI703
I5
sI704
I9
sI705
I10
sI706
I3
sI707
I4
sI708
I2
sI709
I7
sI710
I5
sI711
I5
sI712
I2
sI713
I2
sI714
I7
sI715
I2
sI716
I5
sI717
I6
sI718
I2
sI719
I6
sI720
I2
sI16504
I1
sI722
I6
sI723
I6
sI724
I5
sI725
I6
sI726
I8
sI727
I1
sI728
I7
sI729
I7
sI730
I5
sI731
I2
sI732
I4
sI733
I3
sI734
I2
sI735
I6
sI736
I9
sI737
I5
sI738
I8
sI739
I5
sI740
I5
sI741
I7
sI742
I9
sI743
I3
sI744
I3
sI745
I6
sI746
I10
sI747
I4
sI748
I7
sI749
I5
sI750
I3
sI751
I3
sI752
I8
sI753
I7
sI754
I7
sI755
I8
sI757
I4
sI758
I5
sI759
I3
sI760
I3
sI761
I5
sI762
I11
sI763
I4
sI764
I3
sI765
I1
sI766
I9
sI767
I5
sI768
I6
sI769
I5
sI770
I3
sI771
I3
sI772
I7
sI773
I4
sI774
I7
sI775
I4
sI776
I3
sI777
I3
sI778
I2
sI779
I1
sI780
I3
sI781
I2
sI782
I3
sI783
I5
sI784
I3
sI785
I3
sI786
I2
sI787
I1
sI788
I5
sI789
I2
sI790
I6
sI791
I3
sI792
I3
sI793
I8
sI794
I5
sI795
I5
sI796
I5
sI797
I3
sI799
I2
sI800
I5
sI801
I3
sI802
I7
sI803
I5
sI804
I4
sI805
I8
sI806
I3
sI807
I4
sI808
I2
sI809
I3
sI810
I5
sI811
I6
sI812
I5
sI813
I7
sI814
I7
sI815
I2
sI816
I1
sI817
I11
sI818
I3
sI819
I3
sI820
I7
sI821
I7
sI822
I2
sI823
I4
sI824
I2
sI825
I5
sI826
I4
sI827
I2
sI828
I9
sI829
I5
sI830
I2
sI831
I1
sI832
I3
sI833
I3
sI834
I1
sI835
I7
sI836
I2
sI17221
I1
sI838
I7
sI839
I3
sI840
I4
sI841
I4
sI842
I7
sI843
I3
sI844
I3
sI845
I2
sI846
I3
sI847
I9
sI848
I3
sI849
I1
sI850
I7
sI851
I2
sI852
I3
sI853
I3
sI854
I5
sI855
I4
sI856
I2
sI857
I1
sI858
I3
sI859
I5
sI860
I3
sI861
I1
sI863
I3
sI864
I4
sI865
I1
sI866
I1
sI867
I2
sI868
I1
sI869
I4
sI870
I5
sI871
I7
sI872
I6
sI873
I1
sI874
I6
sI875
I2
sI876
I3
sI9069
I1
sI879
I4
sI880
I6
sI881
I8
sI882
I5
sI883
I4
sI884
I2
sI885
I3
sI886
I6
sI888
I3
sI889
I2
sI890
I6
sI891
I4
sI892
I5
sI893
I6
sI894
I3
sI895
I4
sI896
I8
sI897
I5
sI898
I3
sI899
I6
sI900
I3
sI901
I2
sI902
I2
sI903
I3
sI904
I5
sI905
I2
sI906
I5
sI907
I2
sI908
I2
sI909
I2
sI910
I2
sI911
I7
sI912
I4
sI913
I1
sI914
I2
sI915
I3
sI916
I3
sI917
I2
sI918
I1
sI919
I4
sI920
I3
sI921
I6
sI922
I3
sI923
I1
sI924
I1
sI925
I2
sI926
I3
sI927
I2
sI928
I1
sI929
I4
sI930
I2
sI931
I4
sI932
I1
sI933
I2
sI934
I4
sI935
I5
sI936
I1
sI937
I1
sI938
I1
sI939
I2
sI940
I7
sI941
I3
sI942
I5
sI943
I2
sI944
I1
sI945
I3
sI946
I2
sI948
I2
sI949
I1
sI950
I2
sI951
I3
sI953
I3
sI954
I4
sI955
I1
sI956
I4
sI957
I2
sI958
I6
sI959
I3
sI960
I7
sI961
I3
sI962
I1
sI963
I3
sI964
I3
sI965
I1
sI966
I3
sI967
I4
sI968
I4
sI969
I5
sI970
I1
sI971
I2
sI972
I2
sI973
I4
sI974
I2
sI975
I4
sI976
I3
sI977
I3
sI978
I4
sI979
I2
sI980
I1
sI981
I3
sI982
I5
sI983
I1
sI984
I2
sI985
I4
sI986
I5
sI987
I3
sI988
I1
sI989
I2
sI990
I5
sI991
I2
sI992
I2
sI993
I3
sI994
I7
sI995
I2
sI996
I1
sI997
I3
sI998
I1
sI999
I2
sI1000
I4
sI1001
I1
sI1002
I3
sI1003
I2
sI1004
I1
sI1005
I4
sI1006
I2
sI1007
I4
sI1008
I1
sI1009
I3
sI1011
I2
sI1012
I5
sI1013
I4
sI1014
I1
sI1015
I2
sI1016
I2
sI1017
I6
sI9210
I1
sI1019
I2
sI1020
I5
sI1022
I2
sI1023
I2
sI1024
I5
sI1025
I3
sI1026
I6
sI1028
I3
sI1029
I2
sI1030
I2
sI1031
I5
sI1032
I1
sI1033
I1
sI1034
I4
sI1036
I3
sI1037
I1
sI1038
I2
sI1039
I3
sI1040
I1
sI1041
I1
sI1042
I4
sI1043
I1
sI1044
I5
sI1046
I2
sI1047
I1
sI1048
I4
sI1050
I2
sI1051
I2
sI1052
I3
sI1053
I3
sI1054
I2
sI1056
I1
sI1057
I1
sI1058
I3
sI1059
I5
sI1060
I3
sI1061
I1
sI1062
I4
sI1063
I1
sI1064
I3
sI1065
I3
sI1066
I3
sI1067
I4
sI1068
I3
sI1069
I2
sI1070
I3
sI1071
I3
sI1072
I1
sI1073
I1
sI1074
I1
sI9267
I1
sI1076
I3
sI1077
I2
sI1078
I2
sI1079
I2
sI1080
I2
sI1081
I3
sI1082
I5
sI1084
I1
sI1085
I1
sI1086
I1
sI1087
I1
sI1088
I1
sI1089
I2
sI1090
I1
sI1091
I2
sI1092
I4
sI1093
I1
sI1094
I2
sI1096
I3
sI1097
I5
sI1098
I2
sI1100
I4
sI1101
I3
sI1102
I2
sI1103
I4
sI1104
I1
sI1105
I2
sI1106
I4
sI1107
I2
sI1108
I1
sI1109
I2
sI1110
I1
sI1111
I2
sI1112
I5
sI1113
I5
sI1114
I3
sI1115
I2
sI1116
I3
sI1117
I2
sI1118
I3
sI1120
I1
sI1121
I2
sI1122
I2
sI1123
I3
sI1124
I3
sI1125
I5
sI1126
I3
sI1127
I1
sI1128
I4
sI1129
I3
sI1130
I2
sI1131
I2
sI1132
I2
sI1133
I2
sI1134
I2
sI1135
I2
sI1136
I4
sI1137
I2
sI1138
I2
sI1139
I1
sI1140
I2
sI1141
I3
sI1142
I3
sI1143
I1
sI1144
I4
sI1145
I1
sI1146
I3
sI1147
I1
sI1148
I2
sI1149
I3
sI1150
I2
sI1151
I3
sI1153
I1
sI1154
I3
sI1156
I2
sI1157
I4
sI1160
I4
sI1161
I1
sI1162
I1
sI1163
I1
sI1164
I2
sI1165
I3
sI1167
I1
sI1168
I2
sI1169
I2
sI1170
I3
sI1172
I3
sI1173
I2
sI1174
I1
sI1175
I3
sI1177
I2
sI1178
I2
sI1179
I3
sI1180
I2
sI1182
I1
sI9375
I1
sI1184
I3
sI1185
I1
sI1187
I1
sI1188
I4
sI1189
I3
sI1190
I3
sI1191
I2
sI1192
I1
sI1564
I2
sI1194
I3
sI1195
I3
sI1196
I1
sI1197
I1
sI1199
I3
sI1200
I1
sI1201
I3
sI1202
I2
sI1203
I2
sI1204
I3
sI1205
I1
sI1206
I2
sI1207
I4
sI1209
I3
sI1210
I1
sI1211
I2
sI1212
I4
sI1213
I5
sI1214
I1
sI1215
I1
sI1216
I1
sI1218
I4
sI1219
I2
sI1220
I3
sI1221
I1
sI1222
I2
sI1223
I3
sI1224
I3
sI1225
I4
sI1227
I1
sI1228
I1
sI1229
I2
sI1230
I2
sI1231
I1
sI1232
I2
sI1233
I1
sI1234
I3
sI1235
I2
sI1236
I1
sI1237
I1
sI1238
I1
sI1239
I2
sI1240
I1
sI1241
I6
sI1242
I3
sI1243
I3
sI1244
I2
sI1245
I4
sI1248
I2
sI1249
I3
sI1250
I2
sI1251
I2
sI1252
I3
sI1253
I1
sI1254
I2
sI1255
I3
sI1256
I1
sI1258
I4
sI1260
I1
sI1261
I1
sI1262
I1
sI1263
I3
sI1264
I2
sI1265
I2
sI1266
I4
sI1267
I3
sI1268
I7
sI1269
I2
sI1270
I1
sI1271
I1
sI1272
I2
sI1273
I4
sI1274
I3
sI1276
I3
sI1277
I2
sI1278
I3
sI1279
I3
sI1280
I1
sI1282
I4
sI1283
I5
sI1284
I2
sI1285
I1
sI1287
I4
sI1288
I4
sI1289
I5
sI1290
I1
sI1291
I3
sI1292
I1
sI1293
I3
sI1294
I3
sI1295
I4
sI1296
I4
sI1297
I3
sI1298
I3
sI1299
I1
sI1300
I5
sI1301
I2
sI1302
I3
sI1303
I1
sI1304
I1
sI1306
I5
sI1309
I2
sI1311
I2
sI1312
I4
sI1313
I4
sI1314
I3
sI1315
I1
sI1316
I2
sI1317
I3
sI17702
I1
sI1319
I1
sI1321
I1
sI1322
I2
sI1323
I5
sI1324
I1
sI1325
I1
sI1326
I1
sI1327
I1
sI1328
I1
sI1329
I2
sI1330
I2
sI1331
I4
sI1332
I2
sI1333
I1
sI1334
I3
sI1335
I2
sI1336
I1
sI1337
I4
sI1338
I2
sI1339
I1
sI1341
I1
sI1342
I2
sI1345
I3
sI1346
I2
sI1348
I4
sI1350
I3
sI1351
I3
sI1353
I1
sI1354
I3
sI1356
I2
sI1357
I2
sI1358
I2
sI1359
I2
sI1360
I2
sI1361
I1
sI1362
I4
sI1364
I1
sI1365
I2
sI1366
I1
sI1368
I1
sI1369
I1
sI1371
I1
sI1372
I1
sI1373
I2
sI1374
I3
sI1377
I2
sI1379
I1
sI1382
I2
sI1383
I1
sI1384
I2
sI1385
I1
sI1386
I2
sI4327
I1
sI1388
I2
sI1389
I1
sI1390
I1
sI1391
I2
sI1392
I1
sI1395
I3
sI1396
I1
sI1397
I1
sI1399
I2
sI1400
I3
sI1401
I1
sI1402
I2
sI1404
I1
sI1405
I2
sI1410
I2
sI1411
I1
sI1413
I1
sI1414
I1
sI1415
I2
sI1417
I3
sI1418
I2
sI1419
I1
sI1420
I1
sI1421
I4
sI1422
I2
sI1423
I1
sI1425
I3
sI1427
I1
sI1429
I1
sI1431
I2
sI1433
I1
sI1434
I1
sI8431
I1
sI1438
I2
sI1439
I1
sI1440
I2
sI1441
I1
sI1442
I1
sI1443
I2
sI1444
I2
sI1445
I3
sI1446
I1
sI1447
I2
sI1448
I1
sI1449
I2
sI1450
I1
sI1451
I1
sI1452
I1
sI1453
I2
sI1456
I2
sI1457
I2
sI1458
I3
sI1459
I3
sI1462
I2
sI1463
I1
sI1464
I2
sI1466
I2
sI1467
I2
sI1468
I1
sI1469
I1
sI1470
I1
sI1471
I2
sI1472
I2
sI1473
I3
sI1474
I2
sI1475
I1
sI1476
I2
sI1478
I1
sI1479
I2
sI1480
I1
sI1481
I1
sI17866
I1
sI1483
I1
sI1485
I2
sI1486
I3
sI1488
I1
sI1491
I1
sI1492
I6
sI42453
I1
sI1496
I1
sI1497
I2
sI1498
I2
sI1499
I2
sI1500
I1
sI1501
I1
sI1502
I2
sI1503
I2
sI1504
I2
sI1505
I1
sI1506
I2
sI1507
I3
sI1509
I2
sI1510
I2
sI1511
I2
sI1512
I1
sI1514
I2
sI1516
I3
sI1517
I1
sI1518
I2
sI1519
I1
sI1522
I3
sI1523
I1
sI1524
I3
sI1525
I1
sI1527
I2
sI1528
I1
sI1529
I1
sI1532
I1
sI1536
I1
sI1538
I2
sI1539
I2
sI1541
I1
sI1542
I1
sI1544
I2
sI1547
I1
sI1549
I2
sI1550
I2
sI9816
I1
sI1555
I2
sI1556
I2
sI1557
I2
sI1558
I1
sI1561
I1
sI1562
I1
sI17948
I1
sI16645
I1
sI1568
I1
sI1569
I3
sI1572
I2
sI1573
I2
sI1575
I1
sI1578
I1
sI1579
I1
sI1580
I1
sI1581
I4
sI1583
I3
sI1584
I1
sI1585
I1
sI1586
I1
sI17971
I1
sI1588
I1
sI1589
I1
sI1590
I3
sI1591
I1
sI1592
I1
sI1593
I2
sI1595
I2
sI1596
I1
sI1597
I2
sI1599
I1
sI1600
I1
sI1601
I2
sI1602
I2
sI1603
I2
sI1604
I3
sI1606
I2
sI1607
I3
sI1609
I1
sI1610
I1
sI1612
I1
sI1615
I3
sI1617
I2
sI1618
I2
sI1620
I1
sI1622
I1
sI1624
I1
sI1626
I3
sI1627
I2
sI1628
I2
sI1629
I1
sI1630
I2
sI1632
I1
sI1633
I1
sI1635
I1
sI1637
I2
sI1639
I3
sI1640
I1
sI1641
I3
sI1643
I1
sI1644
I1
sI33042
I1
sI1646
I2
sI1648
I1
sI1649
I1
sI1650
I1
sI1651
I1
sI1655
I2
sI1657
I1
sI1658
I2
sI1659
I3
sI1664
I1
sI1665
I1
sI1666
I2
sI1668
I2
sI1670
I1
sI1671
I2
sI1672
I1
sI1677
I1
sI1678
I2
sI1645
I2
sI1680
I1
sI1681
I1
sI1683
I2
sI1684
I1
sI1685
I2
sI1687
I2
sI1688
I1
sI1689
I1
sI1690
I1
sI1691
I1
sI1692
I1
sI1693
I1
sI1695
I1
sI1698
I2
sI1699
I3
sI1700
I1
sI1701
I3
sI1703
I1
sI1706
I2
sI1708
I1
sI1713
I1
sI1714
I2
sI1715
I1
sI1716
I1
sI1719
I1
sI1720
I1
sI1725
I3
sI1726
I2
sI1727
I2
sI1728
I1
sI1729
I1
sI1731
I1
sI1732
I1
sI1733
I1
sI1734
I1
sI1735
I1
sI1736
I1
sI1740
I1
sI1741
I4
sI1742
I1
sI1744
I1
sI1745
I1
sI1746
I1
sI1747
I3
sI1748
I1
sI1750
I2
sI1752
I1
sI1754
I1
sI1755
I2
sI1757
I3
sI1759
I1
sI1760
I1
sI1761
I1
sI1763
I1
sI1764
I2
sI1768
I1
sI1772
I1
sI1776
I1
sI1777
I1
sI1779
I1
sI2787
I1
sI1785
I1
sI18170
I1
sI1787
I1
sI1790
I2
sI1791
I1
sI9984
I1
sI1793
I2
sI1795
I1
sI1800
I3
sI1801
I2
sI1802
I1
sI1804
I1
sI1805
I2
sI1806
I1
sI1808
I1
sI1810
I1
sI1812
I2
sI1814
I4
sI1815
I2
sI1816
I2
sI1818
I1
sI1819
I1
sI1820
I1
sI10017
I1
sI1827
I2
sI1830
I1
sI1831
I1
sI1833
I2
sI1834
I2
sI1837
I2
sI1838
I3
sI1840
I2
sI1842
I1
sI1843
I2
sI1845
I1
sI1847
I2
sI1848
I1
sI1850
I1
sI1851
I1
sI1853
I1
sI1855
I1
sI1857
I2
sI1858
I1
sI1859
I1
sI18246
I1
sI1863
I1
sI1868
I1
sI1869
I1
sI1872
I1
sI2238289
I1
sI1875
I1
sI1878
I1
sI1879
I2
sI1880
I1
sI1882
I1
sI1679
I1
sI1885
I2
sI10079
I1
sI1888
I3
sI1889
I1
sI1890
I1
sI1891
I1
sI1893
I1
sI1894
I1
sI1896
I2
sI1897
I1
sI1900
I1
sI1909
I1
sI1911
I1
sI1912
I1
sI1913
I1
sI1914
I1
sI1916
I1
sI1918
I2
sI1920
I2
sI1921
I1
sI1922
I1
sI1923
I2
sI1924
I1
sI1925
I2
sI1928
I2
sI1930
I1
sI9879
I1
sI1932
I1
sI1933
I1
sI1934
I2
sI1935
I1
sI1936
I1
sI1937
I2
sI1938
I1
sI1940
I2
sI1941
I1
sI1946
I1
sI1949
I1
sI1951
I1
sI1953
I1
sI10146
I1
sI1955
I1
sI1958
I2
sI1959
I1
sI1960
I2
sI1961
I1
sI1962
I1
sI1965
I2
sI1966
I1
sI1968
I1
sI1969
I3
sI1971
I2
sI18358
I1
sI16713
I1
sI1976
I1
sI1977
I1
sI1979
I3
sI1982
I1
sI1984
I1
sI8523
I1
sI1988
I1
sI1990
I1
sI1991
I1
sI1994
I2
sI1995
I1
sI1996
I1
sI1997
I1
sI34766
I1
sI2000
I1
sI2001
I1
sI2003
I2
sI2004
I2
sI2005
I1
sI2009
I1
sI10203
I1
sI2013
I1
sI2015
I1
sI2016
I1
sI2018
I1
sI2020
I2
sI2022
I1
sI2023
I1
sI10216
I1
sI2027
I1
sI2029
I1
sI2030
I2
sI2032
I1
sI2033
I1
sI2037
I2
sI2041
I1
sI2042
I1
sI2046
I2
sI2047
I1
sI2049
I1
sI2051
I3
sI2052
I3
sI2054
I1
sI9900
I1
sI2059
I1
sI2060
I1
sI2061
I1
sI2064
I2
sI2068
I2
sI2069
I1
sI2071
I1
sI2072
I2
sI2077
I2
sI2080
I2
sI2081
I1
sI2082
I1
sI2083
I1
sI2084
I1
sI2086
I1
sI2087
I1
sI2088
I1
sI2089
I1
sI2092
I1
sI2104
I1
sI2107
I1
sI2108
I1
sI2113
I1
sI2116
I1
sI2117
I1
sI2119
I2
sI2123
I1
sI2125
I2
sI2127
I1
sI2128
I1
sI2129
I1
sI11278
I1
sI2135
I2
sI10330
I1
sI10331
I1
sI1435
I1
sI2145
I1
sI2146
I1
sI2150
I1
sI18537
I1
sI2155
I2
sI2156
I2
sI2157
I1
sI2158
I1
sI2159
I1
sI2163
I1
sI2167
I1
sI2168
I1
sI2169
I3
sI2173
I2
sI2174
I1
sI4164
I1
sI2177
I1
sI2178
I1
sI2184
I1
sI2186
I1
sI2189
I1
sI2194
I1
sI2199
I1
sI2204
I1
sI2207
I1
sI2211
I1
sI2215
I2
sI2216
I1
sI2217
I2
sI2223
I1
sI2229
I1
sI2233
I1
sI2237
I1
sI2238
I1
sI2239
I1
sI2240
I1
sI2241
I1
sI2243
I1
sI2246
I1
sI2249
I1
sI2260
I2
sI2264
I1
sI2265
I1
sI2268
I2
sI2270
I1
sI2271
I1
sI2272
I1
sI2275
I1
sI2280
I1
sI2281
I1
sI2282
I1
sI2284
I1
sI8574
I1
sI2294
I1
sI2296
I1
sI2300
I1
sI2302
I1
sI18688
I1
sI2305
I1
sI2306
I1
sI2307
I2
sI2309
I1
sI2310
I2
sI2317
I2
sI2326
I1
sI2327
I1
sI2331
I1
sI2333
I1
sI2334
I2
sI2335
I1
sI2336
I2
sI2342
I1
sI2343
I1
sI2345
I1
sI2348
I1
sI2350
I1
sI2352
I2
sI2353
I2
sI2354
I1
sI2356
I1
sI2359
I1
sI2365
I1
sI2368
I1
sI10564
I1
sI2386
I1
sI2387
I2
sI5535
I1
sI2391
I1
sI2394
I1
sI2395
I1
sI2397
I1
sI18783
I1
sI2401
I1
sI2405
I1
sI2406
I1
sI2407
I1
sI2409
I1
sI2410
I1
sI2413
I2
sI2416
I1
sI2420
I1
sI2427
I1
sI2428
I1
sI2444
I1
sI2445
I1
sI18836
I1
sI10647
I1
sI18847
I1
sI2466
I1
sI51621
I1
sI2470
I1
sI2473
I1
sI2474
I1
sI2476
I1
sI2477
I1
sI18862
I1
sI2479
I1
sI2482
I2
sI2494
I2
sI2495
I2
sI2497
I1
sI10692
I1
sI2504
I1
sI2506
I1
sI1783
I1
sI2508
I1
sI2516
I1
sI2526
I1
sI2529
I1
sI2535
I1
sI2536
I1
sI2542
I1
sI2547
I1
sI2549
I1
sI2551
I2
sI2552
I1
sI2556
I1
sI2560
I1
sI2561
I1
sI8619
I1
sI2564
I1
sI2565
I1
sI2569
I1
sI2572
I1
sI2573
I2
sI8269
I1
sI2576
I1
sI2580
I1
sI2581
I2
sI2588
I1
sI2591
I1
sI2593
I1
sI27173
I1
sI2599
I1
sI2600
I1
sI2610
I1
sI2613
I1
sI2615
I1
sI2617
I1
sI19002
I1
sI2620
I2
sI13820
I1
sI2624
I1
sI2625
I1
sI10819
I1
sI3169
I1
sI2642
I1
sI10837
I1
sI2651
I2
sI2652
I1
sI2653
I1
sI2655
I2
sI2658
I1
sI2659
I1
sI2660
I1
sI2667
I1
sI2668
I2
sI2669
I1
sI2676
I1
sI2678
I1
sI2680
I1
sI2684
I2
sI2692
I1
sI82369
I1
sI2697
I1
sI2703
I1
sI2708
I2
sI10901
I1
sI2713
I1
sI2714
I1
sI2716
I1
sI2717
I1
sI2723
I1
sI2724
I1
sI10917
I1
sI11377
I1
sI2729
I1
sI2730
I1
sI2732
I1
sI2737
I1
sI2745
I1
sI2746
I2
sI2752
I1
sI1825
I2
sI19146
I1
sI2763
I1
sI2768
I1
sI2769
I1
sI2770
I1
sI2772
I1
sI2775
I1
sI2784
I1
sI10979
I1
sI2795
I1
sI2796
I1
sI2797
I1
sI19581
I1
sI2801
I1
sI2805
I1
sI19193
I1
sI2810
I1
sI2818
I1
sI2826
I1
sI8663
I1
sI2828
I1
sI2830
I1
sI16856
I1
sI2837
I2
sI2839
I1
sI2841
I1
sI2843
I2
sI25051
I1
sI2853
I1
sI2854
I1
sI19239
I1
sI2856
I1
sI2857
I1
sI2859
I1
sI2863
I1
sI2864
I1
sI2865
I1
sI2880
I2
sI2893
I1
sI2895
I1
sI2900
I1
sI2902
I2
sI2914
I1
sI2915
I1
sI2925
I1
sI2932
I1
sI2935
I1
sI2943
I1
sI2951
I1
sI2957
I2
sI2961
I1
sI19350
I1
sI2971
I1
sI2972
I1
sI2976
I2
sI2977
I1
sI2990
I1
sI2992
I1
sI2994
I1
sI2996
I1
sI2999
I1
sI3010
I2
sI3011
I1
sI3012
I1
sI3019
I1
sI3026
I1
sI3027
I1
sI27607
I1
sI3033
I1
sI3035
I1
sI3036
I1
sI3040
I1
sI3042
I1
sI3043
I2
sI3046
I2
sI3050
I1
sI3054
I2
sI3055
I1
sI3060
I1
sI3063
I1
sI3069
I1
sI3081
I1
sI3084
I1
sI3086
I1
sI3092
I1
sI3093
I1
sI3094
I1
sI3102
I1
sI16551
I1
sI3111
I1
sI3131
I1
sI3140
I1
sI16908
I1
sI3148
I1
sI3153
I1
sI19538
I1
sI3155
I1
sI3156
I1
sI3160
I1
sI2833
I1
sI8720
I1
sI3176
I1
sI3180
I1
sI3182
I1
sI3185
I1
sI3186
I1
sI3188
I1
sI3195
I1
sI3197
I1
sI11391
I1
sI3205
I1
sI11457
I1
sI3210
I1
sI3212
I1
sI3214
I1
sI3215
I1
sI3217
I1
sI3221
I1
sI11414
I1
sI3228
I1
sI3229
I1
sI8731
I1
sI3240
I1
sI3245
I1
sI3246
I1
sI3248
I1
sI3249
I1
sI3251
I1
sI3265
I1
sI3266
I1
sI8737
I1
sI3276
I1
sI3277
I1
sI11472
I1
sI11478
I1
sI11480
I1
sI3293
I1
sI3294
I1
sI3300
I1
sI3307
I2
sI3308
I1
sI3309
I1
sI3317
I1
sI3325
I1
sI3326
I1
sI3330
I1
sI3332
I1
sI3333
I1
sI3339
I1
sI11549
I1
sI3358
I2
sI3360
I1
sI3372
I1
sI3377
I1
sI3380
I2
sI3382
I2
sI3383
I1
sI3390
I2
sI11593
I1
sI3409
I1
sI3410
I1
sI3412
I1
sI3414
I1
sI3428
I1
sI3431
I1
sI3436
I1
sI3439
I1
sI3444
I1
sI3447
I1
sI3462
I1
sI8770
I1
sI3472
I1
sI3486
I1
sI3487
I1
sI1387
I1
sI36280
I1
sI3513
I1
sI3516
I1
sI3518
I1
sI3520
I1
sI3522
I1
sI3523
I1
sI3526
I1
sI3538
I1
sI590
I4
sI1482
I1
sI3563
I1
sI3569
I1
sI3572
I1
sI69113
I1
sI3578
I1
sI11780
I1
sI3593
I1
sI3598
I1
sI3603
I1
sI3607
I1
sI3610
I1
sI3614
I1
sI3618
I1
sI3621
I2
sI3631
I1
sI3635
I1
sI3636
I2
sI3637
I1
sI3650
I1
sI3655
I1
sI3660
I1
sI3673
I1
sI3678
I1
sI3679
I1
sI8806
I1
sI3686
I1
sI8809
I1
sI3707
I1
sI3710
I1
sI3712
I1
sI3714
I1
sI3743
I3
sI3761
I1
sI12915
I1
sI52918
I1
sI3769
I1
sI3776
I1
sI167624
I1
sI3790
I1
sI3791
I2
sI1998
I1
sI3801
I1
sI3802
I1
sI3805
I1
sI3807
I2
sI3808
I1
sI3812
I2
sI3830
I1
sI8311
I1
sI3837
I1
sI12033
I1
sI3844
I1
sI3846
I1
sI3847
I1
sI3853
I1
sI20242
I1
sI3863
I1
sI3869
I1
sI3873
I1
sI3874
I1
sI1493
I1
sI3885
I1
sI3889
I1
sI7480
I1
sI3924
I1
sI3941
I1
sI3944
I1
sI3946
I1
sI10215
I1
sI3953
I1
sI12147
I1
sI3958
I1
sI3969
I1
sI3971
I1
sI3978
I1
sI4002
I1
sI4007
I1
sI4009
I1
sI4012
I1
sI4013
I1
sI4014
I1
sI4029
I1
sI4039
I1
sI4044
I1
sI20431
I1
sI4051
I1
sI4052
I1
sI4058
I1
sI4062
I1
sI4075
I1
sI4077
I1
sI12272
I1
sI4083
I1
sI4089
I1
sI4090
I1
sI4093
I1
sI4100
I1
sI4103
I1
sI4104
I1
sI4105
I1
sI4115
I1
sI4116
I1
sI4131
I1
sI689
I2
sI4145
I1
sI12338
I1
sI4154
I1
sI4160
I1
sI12356
I1
sI4167
I1
sI4179
I1
sI4183
I1
sI4185
I1
sI4186
I1
sI20590
I1
sI4209
I1
sI4212
I1
sI20600
I1
sI4217
I1
sI25279
I1
sI4222
I1
sI4223
I1
sI4230
I1
sI4234
I1
sI4237
I1
sI4245
I1
sI4247
I1
sI4250
I1
sI17096
I1
sI4278
I1
sI4280
I1
sI4295
I1
sI4297
I1
sI4300
I1
sI4304
I2
sI37081
I1
sI25295
I1
sI4319
I1
sI4320
I1
sI4325
I1
sI4326
I1
sI721
I5
sI20717
I1
sI4344
I1
sI4354
I1
sI4365
I1
sI12561
I1
sI4373
I1
sI12587
I1
sI4398
I1
sI4400
I1
sI4402
I1
sI8929
I1
sI4455
I1
sI34246
I1
sI29038
I1
sI4470
I1
sI4471
I1
sI16516
I1
sI17132
I1
sI4498
I1
sI4503
I1
sI12704
I1
sI4541
I1
sI4548
I1
sI4576
I1
sI12773
I1
sI4609
I1
sI4395
I1
sI8961
I1
sI12837
I1
sI1792
I1
sI4679
I1
sI4692
I1
sI4696
I1
sI4699
I1
sI4703
I1
sI4716
I1
sI4723
I1
sI2153
I1
sI4732
I1
sI11712
I1
sI12937
I1
sI8985
I1
sI4760
I1
sI4764
I1
sI4776
I1
sI12981
I1
sI4796
I1
sI4805
I1
sI13008
I1
sI4819
I1
sI4824
I1
sI4840
I1
sI8999
I1
sI4853
I1
sI21260
I1
sI4878
I1
sI4891
I2
sI4893
I1
sI4898
I1
sI4916
I1
sI4921
I1
sI13803
I1
sI4936
I1
sI4960
I1
sI9019
I1
sI160618
I1
sI8622
I1
sI4992
I1
sI4995
I1
sI4996
I2
sI17217
I1
sI5017
I1
sI837
I1
sI5025
I1
sI5033
I1
sI5052
I1
sI5061
I1
sI5069
I1
sI5070
I1
sI13263
I1
sI5093
I1
sI9043
I1
sI5152
I1
sI5158
I1
sI5171
I1
sI5176
I1
sI5206
I1
sI5209
I1
sI5230
I1
sI13428
I1
sI5244
I1
sI21636
I1
sI38022
I1
sI5256
I1
sI877
I3
sI13461
I1
sI5285
I1
sI5290
I1
sI5294
I1
sI5297
I1
sI5311
I3
sI5317
I1
sI5323
I1
sI5326
I1
sI5327
I1
sI9080
I1
sI5356
I2
sI5360
I1
sI9090
I1
sI5397
I1
sI5419
I1
sI5427
I1
sI5436
I1
sI5437
I1
sI5443
I1
sI5494
I1
sI5496
I1
sI13699
I1
sI21401
I1
sI5533
I2
sI30111
I1
sI21920
I1
sI5559
I1
sI5571
I1
sI5580
I1
sI13784
I1
sI5604
I1
sI5610
I1
sI5611
I1
sI7763
I1
sI5628
I1
sI202244
I1
sI8371
I1
sI22022
I1
sI13849
I1
sI5660
I1
sI8221
I1
sI5672
I1
sI5674
I1
sI5681
I1
sI5685
I1
sI5691
I1
sI161351
I1
sI13904
I1
sI5718
I1
sI5746
I1
sI13942
I1
sI5756
I1
sI9739
I1
sI9152
I1
sI5764
I2
sI5766
I1
sI30355
I1
sI5782
I1
sI5783
I1
sI5788
I1
sI5798
I1
sI13998
I1
sI14000
I1
sI5816
I1
sI5827
I1
sI5847
I1
sI16429
I1
sI5881
I1
sI5883
I2
sI14090
I1
sI9176
I1
sI5916
I1
sI5921
I1
sI14118
I1
sI5928
I1
sI5935
I1
sI5982
I1
sI5983
I1
sI14183
I1
sI5997
I1
sI1018
I3
sI137086
I1
sI6043
I1
sI22450
I1
sI6069
I1
sI33781
I1
sI6083
I1
sI79815
I1
sI6097
I1
sI1567
I1
sI6109
I1
sI6122
I1
sI16571
I1
sI6136
I1
sI6137
I1
sI14348
I1
sI14366
I1
sI6189
I1
sI2399
I1
sI6212
I1
sI6224
I1
sI14444
I1
sI6293
I1
sI6309
I1
sI24264
I1
sI6324
I1
sI22711
I1
sI22716
I1
sI6342
I1
sI14547
I1
sI71901
I1
sI22761
I1
sI6391
I1
sI6443
I1
sI14637
I1
sI31022
I1
sI14643
I1
sI6461
I1
sI6469
I1
sI11127
I1
sI6487
I1
sI6512
I1
sI14705
I1
sI2455
I1
sI17478
I1
sI6572
I1
sI14792
I1
sI6614
I1
sI14828
I1
sI14832
I1
sI31228
I1
sI2478
I1
sI6688
I1
sI6696
I1
sI9308
I1
sI14895
I1
sI4315
I1
sI14924
I1
sI6748
I1
sI9323
I1
sI14983
I1
sI6796
I1
sI6804
I1
sI6831
I1
sI6880
I2
sI15082
I1
sI6900
I1
sI15110
I1
sI6942
I1
sI15145
I1
sI7009
I1
sI7018
I1
sI15226
I1
sI23425
I1
sI15234
I1
sI6640
I1
sI15266
I1
sI17563
I1
sI105387
I1
sI15276
I1
sI1183
I1
sI15304
I1
sI7125
I1
sI41156
I1
sI48156
I1
sI9787
I1
sI15401
I1
sI7214
I1
sI15427
I1
sI89160
I1
sI7263
I1
sI7356
I1
sI7373
I1
sI15597
I1
sI7409
I1
sI15603
I1
sI163069
I1
sI15635
I1
sI7450
I1
sI7453
I1
sI7456
I1
sI7466
I1
sI48430
I1
sI64824
I1
sI7481
I1
sI10805
I1
sI19001
I1
sI7513
I1
sI7528
I1
sI64889
I1
sI2623
I1
sI7557
I1
sI15757
I1
sI7585
I1
sI7674
I1
sI15882
I1
sI56851
I1
sI15902
I1
sI7718
I1
sI15913
I1
sI7752
I1
sI19043
I1
sI114266
I1
sI7820
I1
sI24220
I1
sI7843
I1
sI16044
I1
sI7854
I1
sI32439
I1
sI16070
I1
sI16072
I1
sI16080
I1
sI24292
I1
sI1318
I2
sI16125
I1
sI9516
I1
sI7970
I1
sI8051
I1
sI8057
I1
sI16265
I1
sI8096
I1
sI8107
I1
sI90033
I1
sI2725
I1
sI2727
I1
sI25938
I1
sI19113
I1
s.