ccollections
defaultdict
p0
(c__builtin__
int
p1
tp2
Rp3
I8192
I1
sI1
I8473104
sI2
I2237490
sI3
I981026
sI4
I611767
sI5
I387026
sI6
I249637
sI7
I186874
sI8
I134057
sI9
I101511
sI10
I81219
sI11
I64800
sI12
I54443
sI13
I44913
sI14
I38761
sI15
I32579
sI16
I28209
sI17
I24257
sI18
I21626
sI19
I18787
sI20
I17313
sI21
I15212
sI22
I13845
sI23
I12476
sI24
I11502
sI25
I10158
sI26
I9397
sI27
I8536
sI28
I7894
sI29
I7212
sI30
I6888
sI31
I6288
sI32
I5871
sI33
I5442
sI34
I4964
sI35
I4802
sI36
I4520
sI37
I4120
sI38
I3925
sI39
I3737
sI40
I3530
sI41
I3321
sI42
I3127
sI43
I2983
sI44
I2784
sI45
I2715
sI46
I2545
sI47
I2377
sI48
I2226
sI49
I2135
sI50
I2040
sI51
I1919
sI52
I1913
sI53
I1829
sI54
I1720
sI55
I1683
sI56
I1622
sI57
I1575
sI58
I1512
sI59
I1455
sI60
I1344
sI61
I1363
sI62
I1323
sI63
I1312
sI64
I1219
sI65
I1189
sI66
I1111
sI67
I1144
sI68
I1025
sI69
I1041
sI70
I1022
sI71
I942
sI72
I877
sI73
I882
sI74
I859
sI75
I827
sI76
I831
sI77
I762
sI78
I765
sI79
I769
sI80
I726
sI81
I712
sI82
I672
sI83
I663
sI84
I631
sI85
I639
sI86
I590
sI87
I623
sI88
I611
sI89
I580
sI90
I558
sI91
I562
sI92
I512
sI93
I528
sI94
I508
sI95
I493
sI96
I491
sI97
I438
sI98
I446
sI99
I455
sI100
I455
sI101
I409
sI102
I408
sI103
I434
sI104
I363
sI105
I397
sI106
I362
sI107
I350
sI108
I412
sI109
I376
sI110
I399
sI111
I341
sI112
I355
sI113
I301
sI114
I315
sI115
I331
sI116
I304
sI117
I333
sI118
I281
sI119
I272
sI120
I283
sI121
I305
sI122
I270
sI123
I275
sI124
I272
sI125
I237
sI126
I293
sI127
I244
sI128
I231
sI129
I239
sI130
I237
sI131
I231
sI132
I213
sI133
I213
sI134
I220
sI135
I230
sI136
I232
sI137
I186
sI138
I216
sI139
I227
sI140
I186
sI141
I188
sI142
I189
sI143
I203
sI144
I191
sI145
I186
sI146
I212
sI147
I160
sI148
I172
sI149
I157
sI150
I161
sI151
I150
sI152
I162
sI153
I170
sI154
I165
sI155
I161
sI156
I153
sI157
I159
sI158
I148
sI159
I162
sI160
I154
sI161
I136
sI162
I143
sI163
I166
sI164
I144
sI165
I144
sI166
I152
sI167
I120
sI168
I114
sI169
I125
sI170
I127
sI171
I157
sI172
I134
sI173
I121
sI174
I106
sI175
I133
sI176
I111
sI177
I110
sI178
I126
sI179
I117
sI180
I127
sI181
I117
sI182
I126
sI183
I115
sI184
I96
sI185
I112
sI186
I106
sI187
I109
sI188
I97
sI189
I95
sI190
I95
sI191
I116
sI192
I82
sI193
I99
sI194
I93
sI195
I98
sI196
I100
sI197
I88
sI198
I102
sI199
I92
sI200
I81
sI201
I85
sI202
I92
sI203
I109
sI204
I69
sI205
I95
sI206
I76
sI207
I79
sI208
I108
sI209
I80
sI210
I84
sI211
I84
sI212
I67
sI213
I75
sI214
I76
sI215
I71
sI216
I66
sI217
I72
sI218
I81
sI219
I90
sI220
I74
sI221
I68
sI222
I79
sI223
I78
sI224
I71
sI225
I62
sI226
I69
sI227
I64
sI228
I81
sI229
I70
sI230
I69
sI231
I46
sI232
I63
sI233
I56
sI234
I71
sI235
I58
sI236
I56
sI237
I67
sI238
I55
sI239
I66
sI240
I56
sI241
I50
sI242
I64
sI243
I75
sI244
I51
sI245
I58
sI246
I74
sI247
I60
sI248
I52
sI249
I55
sI250
I55
sI251
I68
sI252
I46
sI253
I58
sI254
I50
sI255
I46
sI256
I42
sI257
I55
sI258
I52
sI259
I49
sI260
I51
sI261
I64
sI262
I33
sI263
I38
sI264
I52
sI265
I49
sI266
I48
sI267
I52
sI268
I46
sI269
I36
sI270
I45
sI271
I44
sI272
I48
sI273
I59
sI274
I33
sI275
I31
sI276
I53
sI277
I38
sI278
I45
sI279
I41
sI280
I50
sI281
I50
sI282
I38
sI283
I36
sI284
I45
sI285
I37
sI286
I34
sI287
I30
sI288
I32
sI289
I33
sI290
I33
sI291
I36
sI292
I35
sI293
I28
sI294
I44
sI295
I41
sI296
I32
sI297
I36
sI298
I33
sI299
I25
sI300
I46
sI301
I38
sI302
I33
sI303
I27
sI304
I32
sI305
I25
sI306
I34
sI307
I41
sI308
I31
sI309
I27
sI310
I33
sI311
I30
sI312
I31
sI313
I24
sI314
I30
sI315
I27
sI316
I32
sI317
I32
sI318
I33
sI319
I17
sI320
I32
sI321
I34
sI322
I39
sI323
I30
sI324
I27
sI325
I23
sI326
I21
sI327
I28
sI328
I38
sI329
I18
sI330
I22
sI331
I27
sI332
I27
sI333
I22
sI334
I24
sI335
I33
sI336
I26
sI337
I30
sI338
I24
sI339
I23
sI340
I23
sI341
I29
sI342
I37
sI343
I21
sI344
I28
sI345
I16
sI346
I26
sI347
I29
sI348
I14
sI349
I21
sI350
I23
sI351
I27
sI352
I26
sI353
I31
sI354
I31
sI355
I20
sI356
I24
sI357
I25
sI358
I30
sI359
I24
sI360
I25
sI361
I20
sI362
I20
sI363
I14
sI364
I20
sI365
I16
sI366
I20
sI367
I23
sI368
I17
sI369
I19
sI370
I21
sI371
I21
sI372
I17
sI373
I19
sI374
I19
sI375
I15
sI376
I17
sI377
I15
sI378
I24
sI379
I16
sI380
I17
sI381
I17
sI382
I13
sI383
I10
sI384
I18
sI385
I17
sI386
I8
sI387
I20
sI388
I14
sI389
I17
sI390
I22
sI391
I7
sI392
I19
sI393
I23
sI394
I20
sI395
I13
sI396
I16
sI397
I19
sI398
I11
sI399
I19
sI400
I20
sI401
I15
sI402
I21
sI403
I23
sI404
I16
sI405
I10
sI406
I16
sI407
I15
sI408
I17
sI409
I22
sI410
I10
sI411
I13
sI412
I15
sI413
I20
sI414
I19
sI415
I10
sI416
I17
sI417
I16
sI418
I12
sI419
I18
sI420
I16
sI421
I7
sI422
I17
sI423
I13
sI424
I17
sI425
I13
sI426
I17
sI427
I10
sI428
I20
sI429
I8
sI430
I6
sI431
I17
sI432
I12
sI433
I14
sI434
I9
sI435
I12
sI436
I15
sI437
I12
sI438
I18
sI439
I11
sI440
I11
sI441
I14
sI442
I12
sI443
I9
sI444
I9
sI445
I9
sI446
I15
sI447
I13
sI448
I15
sI449
I11
sI450
I15
sI451
I20
sI452
I22
sI453
I14
sI454
I7
sI455
I11
sI456
I13
sI457
I15
sI458
I17
sI459
I9
sI460
I8
sI461
I13
sI462
I13
sI463
I10
sI464
I12
sI465
I14
sI466
I5
sI467
I13
sI468
I9
sI469
I13
sI470
I14
sI471
I15
sI472
I9
sI473
I16
sI474
I11
sI475
I11
sI476
I11
sI477
I15
sI478
I11
sI479
I8
sI480
I9
sI481
I10
sI482
I13
sI483
I4
sI484
I9
sI485
I20
sI486
I10
sI487
I9
sI488
I9
sI489
I8
sI490
I14
sI491
I8
sI492
I10
sI493
I11
sI494
I6
sI495
I12
sI496
I10
sI497
I11
sI498
I10
sI499
I12
sI500
I15
sI501
I6
sI502
I13
sI503
I5
sI504
I6
sI505
I4
sI506
I5
sI507
I9
sI508
I13
sI509
I12
sI510
I7
sI511
I13
sI512
I10
sI513
I10
sI514
I9
sI515
I12
sI516
I10
sI517
I8
sI518
I8
sI519
I6
sI520
I11
sI521
I11
sI522
I7
sI523
I4
sI524
I10
sI525
I8
sI526
I4
sI527
I12
sI528
I10
sI529
I10
sI530
I5
sI531
I5
sI532
I10
sI533
I9
sI534
I6
sI535
I7
sI536
I9
sI537
I5
sI538
I7
sI539
I10
sI540
I5
sI541
I9
sI542
I6
sI543
I7
sI544
I4
sI545
I10
sI546
I11
sI547
I5
sI548
I10
sI549
I6
sI550
I4
sI551
I8
sI552
I8
sI553
I5
sI554
I4
sI555
I7
sI556
I5
sI557
I9
sI558
I6
sI559
I7
sI560
I2
sI561
I6
sI562
I9
sI563
I5
sI564
I7
sI565
I4
sI566
I5
sI567
I6
sI568
I6
sI569
I5
sI570
I7
sI571
I5
sI572
I4
sI573
I2
sI574
I7
sI575
I7
sI576
I6
sI577
I4
sI578
I9
sI579
I7
sI580
I6
sI581
I7
sI582
I6
sI583
I7
sI584
I9
sI585
I14
sI586
I12
sI587
I8
sI588
I4
sI589
I9
sI590
I9
sI591
I8
sI592
I9
sI593
I7
sI594
I4
sI595
I8
sI596
I4
sI597
I5
sI598
I2
sI599
I6
sI600
I5
sI601
I3
sI602
I12
sI603
I7
sI604
I7
sI605
I6
sI606
I8
sI607
I3
sI608
I4
sI609
I6
sI610
I6
sI611
I2
sI612
I6
sI613
I7
sI614
I3
sI615
I5
sI616
I7
sI617
I6
sI618
I4
sI619
I4
sI620
I5
sI621
I9
sI622
I6
sI624
I2
sI625
I6
sI626
I8
sI627
I3
sI628
I3
sI629
I3
sI630
I5
sI631
I6
sI632
I7
sI633
I5
sI634
I5
sI635
I2
sI636
I6
sI637
I3
sI638
I6
sI639
I6
sI640
I4
sI641
I8
sI642
I6
sI643
I4
sI644
I9
sI645
I6
sI646
I6
sI647
I6
sI648
I6
sI649
I8
sI650
I4
sI651
I5
sI652
I4
sI653
I2
sI654
I3
sI655
I15
sI656
I6
sI657
I5
sI658
I1
sI659
I3
sI660
I2
sI661
I4
sI662
I3
sI663
I7
sI664
I4
sI665
I3
sI666
I8
sI667
I3
sI668
I8
sI669
I6
sI670
I2
sI671
I9
sI672
I1
sI673
I4
sI674
I2
sI675
I2
sI676
I1
sI677
I10
sI678
I4
sI679
I5
sI680
I7
sI681
I2
sI682
I5
sI683
I4
sI684
I6
sI685
I5
sI686
I3
sI687
I4
sI688
I3
sI689
I1
sI690
I1
sI691
I4
sI692
I5
sI693
I6
sI694
I3
sI695
I5
sI696
I4
sI697
I5
sI698
I5
sI699
I3
sI700
I2
sI701
I1
sI702
I2
sI703
I4
sI704
I1
sI705
I3
sI706
I11
sI707
I4
sI708
I5
sI709
I3
sI710
I6
sI711
I2
sI712
I4
sI713
I8
sI715
I4
sI716
I4
sI717
I4
sI718
I4
sI719
I6
sI720
I7
sI721
I3
sI722
I2
sI723
I4
sI724
I6
sI725
I5
sI726
I3
sI727
I2
sI728
I2
sI729
I2
sI730
I2
sI731
I8
sI732
I4
sI733
I3
sI734
I2
sI735
I1
sI736
I4
sI737
I4
sI738
I4
sI739
I4
sI740
I5
sI741
I7
sI742
I1
sI743
I2
sI744
I4
sI745
I8
sI746
I2
sI747
I4
sI748
I5
sI749
I5
sI750
I4
sI751
I4
sI752
I1
sI753
I1
sI754
I3
sI755
I3
sI756
I1
sI757
I1
sI758
I6
sI759
I6
sI760
I3
sI761
I4
sI762
I6
sI763
I2
sI764
I1
sI765
I2
sI766
I2
sI767
I2
sI768
I13
sI769
I4
sI770
I4
sI771
I5
sI772
I2
sI773
I2
sI774
I1
sI775
I4
sI776
I6
sI778
I4
sI779
I2
sI780
I4
sI781
I1
sI782
I3
sI783
I2
sI784
I3
sI786
I5
sI787
I2
sI788
I5
sI789
I7
sI790
I5
sI791
I2
sI792
I4
sI794
I7
sI795
I4
sI796
I4
sI797
I1
sI798
I5
sI800
I3
sI801
I5
sI802
I3
sI803
I3
sI804
I2
sI805
I3
sI806
I2
sI807
I4
sI808
I2
sI809
I5
sI810
I5
sI811
I2
sI812
I4
sI813
I1
sI815
I2
sI816
I3
sI817
I4
sI818
I3
sI819
I2
sI820
I2
sI821
I3
sI822
I5
sI823
I2
sI824
I2
sI825
I1
sI826
I3
sI827
I1
sI829
I2
sI830
I2
sI831
I1
sI832
I5
sI833
I2
sI834
I1
sI835
I1
sI836
I5
sI837
I4
sI838
I2
sI839
I2
sI841
I6
sI842
I3
sI843
I4
sI844
I4
sI845
I2
sI846
I5
sI847
I2
sI848
I3
sI849
I5
sI850
I2
sI851
I6
sI852
I2
sI853
I2
sI854
I5
sI855
I1
sI856
I1
sI857
I1
sI858
I5
sI859
I2
sI860
I4
sI861
I5
sI862
I1
sI863
I1
sI864
I2
sI865
I5
sI866
I4
sI868
I2
sI869
I2
sI870
I1
sI875
I1
sI876
I4
sI877
I2
sI878
I1
sI879
I4
sI880
I1
sI881
I2
sI882
I1
sI883
I6
sI884
I1
sI885
I1
sI886
I2
sI887
I1
sI888
I2
sI889
I2
sI890
I2
sI891
I2
sI892
I2
sI893
I4
sI894
I5
sI895
I1
sI896
I1
sI897
I4
sI899
I5
sI900
I3
sI901
I3
sI902
I2
sI903
I2
sI904
I2
sI905
I2
sI907
I1
sI908
I4
sI909
I2
sI910
I5
sI911
I2
sI912
I3
sI913
I2
sI914
I1
sI915
I1
sI916
I2
sI917
I4
sI918
I4
sI919
I1
sI920
I2
sI921
I1
sI923
I1
sI924
I1
sI925
I3
sI926
I1
sI927
I1
sI928
I2
sI929
I2
sI930
I7
sI931
I1
sI932
I3
sI933
I2
sI934
I1
sI936
I3
sI937
I1
sI938
I1
sI939
I1
sI940
I1
sI941
I3
sI942
I3
sI943
I1
sI945
I2
sI946
I1
sI948
I5
sI949
I2
sI951
I1
sI952
I1
sI953
I3
sI954
I3
sI955
I1
sI956
I2
sI957
I1
sI958
I1
sI959
I2
sI960
I2
sI961
I3
sI963
I1
sI964
I1
sI965
I1
sI967
I3
sI969
I1
sI970
I1
sI971
I3
sI972
I1
sI973
I2
sI974
I1
sI975
I1
sI977
I4
sI978
I2
sI979
I4
sI981
I3
sI982
I2
sI983
I1
sI984
I2
sI985
I4
sI986
I2
sI987
I2
sI988
I4
sI989
I1
sI990
I1
sI991
I1
sI992
I2
sI993
I2
sI995
I3
sI996
I3
sI998
I1
sI999
I1
sI1000
I4
sI1001
I1
sI1002
I4
sI1004
I1
sI1005
I2
sI1006
I1
sI1009
I2
sI1013
I2
sI1014
I1
sI1016
I2
sI1017
I1
sI1018
I1
sI1019
I2
sI1020
I1
sI1021
I3
sI1023
I2
sI1024
I3
sI1025
I1
sI1026
I1
sI1027
I1
sI1028
I4
sI1029
I2
sI1030
I1
sI1031
I1
sI1032
I2
sI1033
I2
sI1034
I2
sI1035
I2
sI1036
I2
sI1037
I1
sI1038
I1
sI1039
I1
sI1040
I2
sI1041
I1
sI1043
I1
sI1044
I1
sI1045
I3
sI1046
I2
sI1047
I2
sI1049
I1
sI1050
I2
sI1051
I1
sI1052
I1
sI1053
I2
sI1054
I1
sI1055
I4
sI1057
I1
sI1058
I2
sI1059
I1
sI1060
I4
sI1061
I5
sI1062
I1
sI1063
I1
sI1064
I2
sI1065
I2
sI1066
I3
sI1068
I1
sI1070
I1
sI1071
I1
sI1072
I2
sI1075
I4
sI1076
I1
sI1078
I3
sI1079
I1
sI1080
I1
sI1081
I2
sI1082
I1
sI1083
I1
sI1084
I2
sI1086
I1
sI1087
I1
sI1088
I1
sI1089
I1
sI1090
I1
sI1094
I1
sI1095
I2
sI1096
I1
sI1097
I1
sI1098
I4
sI1099
I2
sI1103
I1
sI1104
I2
sI1105
I1
sI1106
I2
sI1110
I1
sI1111
I2
sI1112
I1
sI1113
I1
sI1114
I4
sI1115
I2
sI1118
I2
sI1119
I2
sI1121
I1
sI1122
I3
sI1123
I1
sI1124
I2
sI1126
I1
sI1127
I2
sI1129
I3
sI1130
I4
sI1132
I1
sI1134
I1
sI1135
I3
sI1136
I1
sI1137
I1
sI1139
I1
sI1140
I2
sI1141
I2
sI1145
I2
sI1146
I2
sI1147
I1
sI1148
I1
sI1151
I3
sI1152
I2
sI1153
I1
sI1154
I2
sI1156
I3
sI1159
I1
sI1160
I1
sI1161
I1
sI1162
I1
sI1164
I6
sI1165
I1
sI1167
I2
sI1168
I1
sI1169
I3
sI1170
I2
sI1171
I1
sI1172
I2
sI1174
I1
sI1175
I1
sI1177
I1
sI1178
I2
sI1180
I2
sI1181
I1
sI1182
I1
sI1183
I1
sI1184
I1
sI1185
I2
sI1186
I2
sI1187
I1
sI1189
I1
sI1191
I1
sI1193
I2
sI1194
I1
sI1196
I1
sI1198
I1
sI1200
I2
sI1202
I1
sI1203
I1
sI1204
I1
sI1205
I1
sI1206
I2
sI1208
I1
sI1210
I1
sI1211
I2
sI1212
I1
sI1213
I1
sI1214
I1
sI1215
I2
sI1217
I1
sI1218
I1
sI1220
I1
sI1221
I2
sI1223
I1
sI1226
I1
sI1227
I2
sI1228
I1
sI1230
I2
sI1231
I3
sI1233
I1
sI1234
I1
sI1235
I2
sI1236
I2
sI1238
I1
sI1239
I1
sI1241
I1
sI1242
I1
sI1243
I1
sI1245
I1
sI1246
I1
sI1247
I3
sI1248
I1
sI1249
I1
sI1250
I1
sI1251
I1
sI1252
I1
sI1253
I2
sI1254
I1
sI1256
I2
sI1257
I2
sI1258
I1
sI1259
I2
sI1262
I1
sI1263
I1
sI1265
I2
sI1266
I1
sI1267
I1
sI1268
I1
sI1270
I2
sI1271
I1
sI1272
I2
sI1273
I3
sI1274
I3
sI1277
I1
sI1280
I1
sI1283
I1
sI1286
I1
sI1287
I1
sI1288
I1
sI1289
I2
sI1291
I2
sI1292
I1
sI1294
I1
sI1297
I1
sI1298
I1
sI1300
I1
sI1301
I1
sI1303
I2
sI1304
I1
sI1305
I1
sI1306
I1
sI1308
I1
sI1310
I1
sI1311
I1
sI1313
I1
sI1314
I1
sI1315
I1
sI1317
I1
sI1321
I1
sI1323
I2
sI1324
I1
sI1326
I1
sI1328
I2
sI1333
I1
sI1334
I1
sI1335
I1
sI1336
I1
sI1337
I3
sI1339
I1
sI1342
I1
sI1343
I1
sI1345
I1
sI1347
I1
sI1349
I1
sI1351
I1
sI1355
I3
sI1356
I2
sI1358
I2
sI1360
I2
sI1362
I2
sI1366
I2
sI1367
I1
sI1369
I1
sI1373
I2
sI1376
I1
sI1378
I1
sI1380
I1
sI1381
I1
sI1382
I1
sI1385
I1
sI1386
I3
sI1387
I1
sI1388
I1
sI1393
I1
sI1397
I1
sI1398
I1
sI1400
I1
sI1406
I1
sI1409
I1
sI1410
I2
sI1411
I1
sI1417
I3
sI1418
I1
sI1419
I1
sI1421
I1
sI1422
I1
sI1423
I1
sI1429
I1
sI1431
I1
sI1434
I1
sI1438
I1
sI1442
I1
sI1443
I2
sI1449
I1
sI1451
I1
sI1454
I1
sI1459
I1
sI1461
I1
sI1462
I1
sI1463
I1
sI1464
I1
sI1465
I1
sI1466
I1
sI1469
I1
sI1473
I1
sI1475
I1
sI1476
I2
sI1477
I2
sI1478
I1
sI1483
I1
sI1485
I1
sI1486
I1
sI1487
I3
sI1488
I1
sI1489
I2
sI1491
I1
sI1493
I1
sI1501
I1
sI1503
I1
sI1504
I2
sI1507
I1
sI1510
I1
sI1513
I1
sI1516
I1
sI1518
I1
sI1521
I3
sI1522
I1
sI1527
I1
sI1528
I1
sI1533
I2
sI1536
I1
sI1537
I1
sI1538
I1
sI1539
I1
sI1542
I1
sI1543
I1
sI1544
I1
sI1545
I1
sI1547
I1
sI1550
I2
sI1551
I1
sI1552
I1
sI1555
I2
sI1563
I1
sI1571
I1
sI1572
I1
sI1573
I2
sI1578
I1
sI1580
I1
sI1581
I1
sI1585
I1
sI1596
I1
sI1597
I1
sI1599
I2
sI1600
I1
sI1602
I2
sI1604
I2
sI1612
I1
sI1613
I2
sI1618
I1
sI1621
I1
sI1623
I2
sI1626
I1
sI1627
I2
sI1632
I1
sI1634
I1
sI1635
I1
sI1640
I1
sI1645
I1
sI1648
I1
sI1653
I2
sI1657
I1
sI1661
I1
sI1668
I1
sI1669
I1
sI1671
I1
sI1672
I1
sI1673
I1
sI1674
I1
sI1676
I1
sI1677
I1
sI1678
I1
sI1679
I1
sI1681
I2
sI1691
I1
sI1693
I1
sI1694
I1
sI1698
I2
sI1699
I1
sI1704
I1
sI1711
I2
sI1712
I1
sI1717
I1
sI1725
I2
sI1731
I1
sI1732
I1
sI1743
I1
sI1746
I1
sI1747
I1
sI1748
I1
sI1754
I1
sI1755
I1
sI1756
I2
sI1758
I1
sI1761
I2
sI1764
I1
sI1765
I1
sI1766
I1
sI1767
I1
sI1769
I2
sI1774
I1
sI9853
I1
sI1777
I1
sI1783
I1
sI1784
I1
sI1792
I1
sI1793
I1
sI1794
I1
sI1798
I1
sI1799
I1
sI1814
I2
sI1819
I1
sI1823
I1
sI1824
I1
sI1826
I1
sI1829
I1
sI1832
I1
sI1834
I1
sI1838
I2
sI1839
I1
sI1841
I1
sI1843
I1
sI1844
I1
sI1845
I2
sI1856
I1
sI1858
I3
sI1859
I1
sI1860
I2
sI1864
I1
sI1868
I2
sI1877
I1
sI1878
I1
sI1881
I1
sI1884
I1
sI8519
I1
sI1891
I1
sI1895
I1
sI1902
I1
sI1903
I1
sI1907
I1
sI1911
I1
sI1914
I1
sI1916
I1
sI1918
I1
sI1921
I2
sI1925
I2
sI1926
I1
sI1928
I1
sI1934
I1
sI1941
I1
sI1944
I1
sI1947
I1
sI1948
I1
sI1951
I1
sI1952
I1
sI1953
I1
sI1954
I1
sI1955
I1
sI1959
I1
sI1963
I2
sI1969
I2
sI1978
I1
sI1980
I1
sI1984
I1
sI1986
I1
sI1990
I1
sI1991
I1
sI2000
I2
sI2001
I1
sI2006
I1
sI2012
I1
sI2017
I1
sI2020
I1
sI2025
I1
sI2032
I1
sI2037
I1
sI2038
I1
sI2044
I1
sI2047
I2
sI2048
I1
sI2049
I1
sI2052
I1
sI2059
I1
sI2080
I1
sI2083
I1
sI2090
I2
sI2094
I1
sI2097
I1
sI2104
I1
sI2106
I1
sI2129
I1
sI2137
I1
sI2140
I1
sI2149
I1
sI2152
I2
sI2169
I1
sI2174
I1
sI2180
I1
sI2182
I1
sI2188
I1
sI2194
I1
sI2195
I2
sI2199
I1
sI2207
I1
sI2214
I1
sI2216
I1
sI2220
I1
sI2222
I1
sI2224
I2
sI2233
I1
sI2239
I1
sI2241
I1
sI2245
I1
sI2263
I1
sI2274
I1
sI2285
I1
sI10478
I1
sI2300
I1
sI2305
I1
sI2306
I1
sI2349
I1
sI2351
I1
sI2359
I1
sI2371
I1
sI2375
I1
sI2376
I1
sI2377
I1
sI2378
I1
sI2398
I1
sI2407
I1
sI2421
I1
sI2426
I2
sI2429
I2
sI2440
I1
sI2449
I1
sI2469
I1
sI2486
I1
sI2492
I1
sI2497
I1
sI2499
I1
sI2515
I1
sI2529
I1
sI2546
I1
sI2548
I1
sI2576
I1
sI10774
I1
sI2602
I1
sI2603
I1
sI2606
I1
sI2610
I1
sI2624
I2
sI2630
I1
sI2631
I1
sI2634
I1
sI2646
I2
sI2654
I2
sI2673
I1
sI2675
I1
sI2695
I1
sI2722
I1
sI2724
I2
sI8647
I1
sI2736
I1
sI2748
I1
sI2771
I1
sI2776
I1
sI2779
I1
sI2790
I1
sI2793
I1
sI2797
I1
sI2806
I1
sI2860
I1
sI2872
I2
sI2887
I1
sI2888
I1
sI2897
I1
sI2918
I1
sI2924
I1
sI2931
I1
sI2953
I1
sI2977
I1
sI2982
I1
sI2988
I1
sI2990
I1
sI2992
I1
sI3014
I1
sI3043
I1
sI3048
I1
sI3056
I1
sI3080
I1
sI3110
I1
sI3113
I1
sI3203
I2
sI3208
I1
sI3218
I1
sI3270
I1
sI3277
I1
sI3340
I1
sI3352
I1
sI3370
I1
sI3393
I1
sI3396
I1
sI3417
I1
sI3420
I1
sI3451
I1
sI3472
I1
sI3495
I1
sI3520
I1
sI3537
I1
sI3586
I1
sI3590
I1
sI3611
I1
sI3668
I1
sI3736
I1
sI3785
I1
sI3792
I1
sI3802
I1
sI3814
I1
sI3840
I1
sI3852
I1
sI3858
I1
sI3883
I1
sI3886
I1
sI3898
I1
sI3905
I1
sI4000
I1
sI4021
I1
sI4027
I1
sI4033
I2
sI4069
I1
sI4073
I1
sI4083
I1
sI4122
I1
sI4154
I1
sI4161
I1
sI4163
I1
sI4194
I1
sI4238
I1
sI4252
I1
sI4282
I1
sI4345
I1
sI4405
I1
sI4429
I1
sI4463
I1
sI4481
I1
sI4609
I1
sI4777
I1
sI13013
I1
sI4850
I1
sI5073
I1
sI5075
I1
sI5090
I1
sI5110
I1
sI5387
I1
sI5406
I1
sI5414
I1
sI5422
I1
sI5443
I1
sI5449
I1
sI5461
I1
sI5473
I1
sI5604
I1
sI5659
I1
sI5718
I1
sI5786
I1
sI6085
I1
sI6114
I1
sI6225
I1
sI6231
I1
sI6374
I1
sI6380
I1
sI6384
I1
sI6488
I1
sI6763
I1
sI6820
I1
sI7007
I1
sI7172
I1
sI7222
I1
sI7479
I1
sI7874
I1
s.