ccollections
defaultdict
p0
(c__builtin__
int
p1
tp2
Rp3
I0
I8787391
sI1
I1715009
sI2
I1017821
sI3
I625453
sI4
I411949
sI5
I287122
sI6
I208268
sI7
I156414
sI8
I120527
sI9
I94784
sI10
I76269
sI11
I62703
sI12
I51654
sI13
I43189
sI14
I36744
sI15
I31156
sI16
I27073
sI17
I23685
sI18
I20443
sI19
I17761
sI20
I15982
sI21
I14104
sI22
I12538
sI23
I11352
sI24
I10155
sI25
I8964
sI26
I8372
sI27
I7613
sI28
I6868
sI29
I6307
sI30
I5881
sI31
I5322
sI32
I4824
sI33
I4420
sI34
I4176
sI35
I3984
sI36
I3646
sI37
I3374
sI38
I3137
sI39
I3010
sI40
I2816
sI41
I2717
sI42
I2427
sI43
I2396
sI44
I2160
sI45
I2083
sI46
I1917
sI47
I1856
sI48
I1778
sI49
I1711
sI50
I1541
sI51
I1451
sI52
I1529
sI53
I1395
sI54
I1337
sI55
I1242
sI56
I1253
sI57
I1157
sI58
I1164
sI59
I1114
sI60
I1037
sI61
I1022
sI62
I953
sI63
I881
sI64
I899
sI65
I895
sI66
I855
sI67
I777
sI68
I805
sI69
I751
sI70
I719
sI71
I670
sI72
I696
sI73
I633
sI74
I643
sI75
I574
sI76
I594
sI77
I555
sI78
I540
sI79
I577
sI80
I488
sI81
I532
sI82
I487
sI83
I507
sI84
I474
sI85
I479
sI86
I453
sI87
I416
sI88
I431
sI89
I421
sI90
I373
sI91
I414
sI92
I401
sI93
I359
sI94
I393
sI95
I334
sI96
I347
sI97
I344
sI98
I323
sI99
I322
sI100
I330
sI101
I328
sI102
I302
sI103
I285
sI104
I266
sI105
I275
sI106
I285
sI107
I255
sI108
I267
sI109
I261
sI110
I235
sI111
I260
sI112
I266
sI113
I265
sI114
I204
sI115
I218
sI116
I223
sI117
I233
sI118
I216
sI119
I223
sI120
I213
sI121
I209
sI122
I216
sI123
I219
sI124
I213
sI125
I185
sI126
I177
sI127
I197
sI128
I173
sI129
I164
sI130
I157
sI131
I187
sI132
I167
sI133
I174
sI134
I157
sI135
I163
sI136
I153
sI137
I190
sI138
I176
sI139
I146
sI140
I178
sI141
I153
sI142
I146
sI143
I128
sI144
I148
sI145
I135
sI146
I122
sI147
I134
sI148
I130
sI149
I119
sI150
I136
sI151
I124
sI152
I132
sI153
I104
sI154
I129
sI155
I118
sI156
I114
sI157
I123
sI158
I105
sI159
I111
sI160
I103
sI161
I121
sI162
I111
sI163
I126
sI164
I99
sI165
I119
sI166
I96
sI167
I100
sI168
I95
sI169
I81
sI170
I104
sI171
I95
sI172
I94
sI173
I72
sI174
I100
sI175
I81
sI176
I101
sI177
I87
sI178
I99
sI179
I81
sI180
I81
sI181
I98
sI182
I91
sI183
I92
sI184
I79
sI185
I86
sI186
I74
sI187
I65
sI188
I89
sI189
I75
sI190
I66
sI191
I82
sI192
I79
sI193
I94
sI194
I79
sI195
I79
sI196
I79
sI197
I72
sI198
I75
sI199
I80
sI200
I75
sI201
I82
sI202
I68
sI203
I75
sI204
I56
sI205
I74
sI206
I64
sI207
I78
sI208
I67
sI209
I60
sI210
I63
sI211
I65
sI212
I56
sI213
I68
sI214
I59
sI215
I66
sI216
I62
sI217
I66
sI218
I72
sI219
I65
sI220
I85
sI221
I62
sI222
I58
sI223
I58
sI224
I51
sI225
I53
sI226
I44
sI227
I53
sI228
I59
sI229
I51
sI230
I60
sI231
I50
sI232
I62
sI233
I58
sI234
I54
sI235
I58
sI236
I43
sI237
I49
sI238
I43
sI239
I52
sI240
I50
sI241
I44
sI242
I44
sI243
I48
sI244
I57
sI245
I45
sI246
I37
sI247
I40
sI248
I48
sI249
I53
sI250
I44
sI251
I47
sI252
I44
sI253
I41
sI254
I35
sI255
I46
sI256
I45
sI257
I50
sI258
I47
sI259
I46
sI260
I41
sI261
I44
sI262
I41
sI263
I38
sI264
I45
sI265
I31
sI266
I38
sI267
I33
sI268
I47
sI269
I26
sI270
I35
sI271
I33
sI272
I42
sI273
I36
sI274
I44
sI275
I30
sI276
I44
sI277
I34
sI278
I43
sI279
I36
sI280
I28
sI281
I49
sI282
I37
sI283
I44
sI284
I32
sI285
I31
sI286
I33
sI287
I24
sI288
I35
sI289
I37
sI290
I27
sI291
I37
sI292
I29
sI293
I28
sI294
I33
sI295
I35
sI296
I32
sI297
I26
sI298
I33
sI299
I19
sI300
I31
sI301
I34
sI302
I28
sI303
I27
sI304
I23
sI305
I27
sI306
I36
sI307
I15
sI308
I26
sI309
I29
sI310
I25
sI311
I17
sI312
I31
sI313
I24
sI314
I23
sI315
I28
sI316
I28
sI317
I26
sI318
I22
sI319
I24
sI320
I29
sI321
I26
sI322
I27
sI323
I32
sI324
I24
sI325
I18
sI326
I18
sI327
I27
sI328
I24
sI329
I25
sI330
I33
sI331
I24
sI332
I23
sI333
I20
sI334
I35
sI335
I20
sI336
I26
sI337
I24
sI338
I27
sI339
I36
sI340
I27
sI341
I20
sI342
I26
sI343
I24
sI344
I32
sI345
I20
sI346
I20
sI347
I20
sI348
I14
sI349
I19
sI350
I19
sI351
I20
sI352
I24
sI353
I24
sI354
I15
sI355
I19
sI356
I17
sI357
I17
sI358
I17
sI359
I19
sI360
I20
sI361
I19
sI362
I20
sI363
I18
sI364
I21
sI365
I23
sI366
I24
sI367
I18
sI368
I17
sI369
I22
sI370
I14
sI371
I20
sI372
I19
sI373
I22
sI374
I17
sI375
I14
sI376
I23
sI377
I20
sI378
I14
sI379
I17
sI380
I18
sI381
I16
sI8574
I1
sI383
I18
sI384
I17
sI385
I18
sI386
I14
sI387
I15
sI388
I14
sI389
I22
sI390
I20
sI391
I15
sI392
I25
sI393
I20
sI394
I9
sI395
I9
sI396
I16
sI397
I14
sI398
I15
sI399
I11
sI400
I20
sI401
I17
sI402
I13
sI403
I19
sI404
I20
sI405
I13
sI406
I18
sI407
I13
sI408
I17
sI409
I16
sI410
I11
sI411
I13
sI412
I15
sI413
I18
sI414
I15
sI415
I15
sI416
I20
sI417
I16
sI418
I16
sI419
I19
sI420
I20
sI421
I18
sI422
I16
sI423
I10
sI424
I12
sI425
I16
sI426
I6
sI427
I14
sI428
I9
sI429
I7
sI430
I8
sI431
I16
sI432
I16
sI433
I15
sI434
I10
sI435
I15
sI436
I15
sI437
I15
sI438
I11
sI439
I20
sI440
I12
sI441
I20
sI442
I14
sI443
I15
sI444
I13
sI445
I9
sI446
I17
sI447
I12
sI448
I10
sI449
I13
sI450
I15
sI451
I18
sI452
I14
sI453
I13
sI454
I16
sI455
I14
sI456
I11
sI457
I12
sI458
I12
sI459
I11
sI460
I15
sI461
I13
sI462
I10
sI463
I9
sI464
I10
sI465
I8
sI466
I20
sI467
I8
sI468
I9
sI469
I22
sI470
I10
sI471
I10
sI472
I11
sI473
I12
sI474
I9
sI475
I10
sI476
I8
sI477
I9
sI478
I13
sI479
I11
sI480
I8
sI481
I12
sI482
I14
sI483
I10
sI484
I14
sI485
I10
sI486
I14
sI487
I9
sI488
I17
sI489
I11
sI490
I12
sI491
I9
sI492
I10
sI493
I16
sI494
I10
sI495
I17
sI496
I8
sI497
I18
sI498
I13
sI499
I9
sI500
I13
sI501
I11
sI502
I13
sI503
I19
sI504
I5
sI505
I9
sI506
I21
sI507
I13
sI508
I15
sI509
I11
sI510
I12
sI511
I5
sI512
I7
sI513
I7
sI514
I17
sI515
I7
sI516
I10
sI517
I14
sI518
I7
sI519
I18
sI520
I9
sI521
I11
sI522
I6
sI523
I7
sI524
I6
sI525
I13
sI526
I17
sI527
I7
sI8720
I1
sI529
I10
sI530
I5
sI531
I13
sI532
I9
sI533
I2
sI534
I7
sI535
I7
sI536
I10
sI537
I6
sI538
I11
sI539
I8
sI540
I10
sI541
I5
sI542
I9
sI543
I13
sI544
I7
sI545
I5
sI546
I10
sI547
I10
sI548
I12
sI549
I7
sI550
I4
sI551
I5
sI552
I11
sI553
I11
sI554
I7
sI555
I17
sI556
I9
sI557
I7
sI558
I11
sI559
I10
sI560
I10
sI561
I10
sI562
I6
sI563
I12
sI564
I9
sI565
I11
sI566
I7
sI567
I9
sI568
I8
sI569
I6
sI570
I10
sI571
I10
sI572
I9
sI573
I9
sI574
I5
sI575
I2
sI576
I12
sI577
I4
sI578
I8
sI579
I5
sI580
I12
sI581
I6
sI582
I4
sI583
I4
sI584
I8
sI585
I7
sI586
I11
sI587
I4
sI588
I4
sI589
I8
sI16974
I1
sI591
I7
sI592
I7
sI593
I8
sI594
I5
sI595
I7
sI596
I8
sI597
I9
sI598
I3
sI599
I6
sI600
I5
sI601
I4
sI602
I1
sI603
I9
sI604
I8
sI605
I5
sI606
I4
sI607
I7
sI608
I8
sI609
I10
sI610
I7
sI611
I6
sI612
I3
sI613
I1
sI614
I3
sI615
I4
sI616
I4
sI8809
I1
sI618
I4
sI619
I6
sI620
I5
sI621
I11
sI622
I8
sI623
I7
sI624
I3
sI625
I10
sI626
I9
sI627
I4
sI628
I3
sI629
I9
sI630
I4
sI631
I8
sI632
I5
sI633
I5
sI634
I7
sI635
I2
sI636
I10
sI637
I2
sI638
I8
sI639
I2
sI640
I6
sI641
I6
sI642
I3
sI643
I2
sI644
I3
sI645
I8
sI646
I6
sI647
I4
sI648
I4
sI649
I8
sI650
I6
sI651
I7
sI652
I6
sI653
I7
sI654
I7
sI655
I5
sI656
I9
sI657
I10
sI658
I7
sI659
I6
sI660
I4
sI661
I6
sI662
I6
sI663
I6
sI664
I3
sI665
I3
sI666
I5
sI667
I5
sI668
I5
sI669
I8
sI670
I4
sI671
I3
sI672
I6
sI673
I4
sI674
I1
sI675
I6
sI676
I5
sI677
I5
sI678
I7
sI679
I4
sI680
I6
sI681
I2
sI682
I3
sI683
I4
sI685
I5
sI686
I2
sI687
I5
sI688
I6
sI689
I2
sI690
I3
sI691
I3
sI692
I5
sI693
I2
sI694
I6
sI695
I6
sI696
I7
sI697
I2
sI698
I4
sI699
I5
sI700
I6
sI701
I5
sI702
I3
sI703
I5
sI704
I8
sI705
I10
sI706
I2
sI707
I4
sI708
I2
sI709
I6
sI710
I5
sI711
I5
sI712
I2
sI713
I2
sI714
I6
sI715
I2
sI716
I4
sI717
I6
sI718
I2
sI719
I5
sI720
I2
sI16504
I1
sI722
I4
sI723
I6
sI724
I4
sI725
I6
sI726
I7
sI727
I1
sI728
I7
sI729
I7
sI730
I5
sI731
I2
sI732
I4
sI733
I1
sI734
I1
sI735
I6
sI736
I9
sI737
I5
sI738
I8
sI739
I4
sI740
I5
sI741
I6
sI742
I6
sI743
I3
sI744
I2
sI745
I6
sI746
I9
sI747
I3
sI748
I6
sI749
I4
sI750
I2
sI751
I3
sI752
I8
sI753
I7
sI754
I6
sI755
I5
sI757
I4
sI758
I3
sI759
I3
sI760
I3
sI761
I5
sI762
I10
sI763
I4
sI764
I3
sI765
I1
sI766
I9
sI767
I4
sI768
I5
sI769
I4
sI770
I2
sI771
I3
sI772
I7
sI773
I4
sI774
I7
sI775
I2
sI776
I3
sI777
I2
sI778
I2
sI779
I1
sI780
I2
sI781
I2
sI782
I2
sI783
I4
sI784
I3
sI785
I3
sI786
I1
sI787
I1
sI788
I5
sI789
I2
sI790
I5
sI791
I3
sI792
I3
sI8985
I1
sI794
I4
sI795
I5
sI796
I5
sI797
I3
sI799
I2
sI800
I5
sI801
I3
sI802
I7
sI803
I4
sI804
I4
sI805
I7
sI806
I3
sI807
I3
sI808
I2
sI809
I2
sI810
I4
sI811
I6
sI812
I5
sI813
I6
sI814
I6
sI815
I2
sI816
I1
sI817
I10
sI818
I3
sI819
I3
sI820
I6
sI821
I6
sI822
I2
sI823
I3
sI824
I2
sI825
I3
sI826
I4
sI827
I2
sI828
I9
sI829
I5
sI830
I2
sI831
I1
sI832
I3
sI833
I3
sI834
I1
sI835
I7
sI836
I2
sI17221
I1
sI838
I5
sI839
I2
sI840
I4
sI841
I4
sI842
I7
sI843
I3
sI844
I3
sI845
I1
sI846
I3
sI847
I8
sI848
I3
sI849
I1
sI850
I7
sI9043
I1
sI852
I3
sI853
I3
sI854
I5
sI855
I4
sI856
I1
sI857
I1
sI858
I3
sI859
I5
sI860
I2
sI861
I1
sI863
I2
sI864
I4
sI865
I1
sI866
I1
sI867
I2
sI868
I1
sI869
I3
sI870
I5
sI871
I7
sI872
I6
sI873
I1
sI874
I5
sI875
I2
sI876
I3
sI9069
I1
sI879
I4
sI880
I6
sI881
I8
sI882
I3
sI883
I4
sI884
I2
sI885
I3
sI886
I4
sI9080
I1
sI889
I2
sI890
I6
sI891
I4
sI892
I5
sI893
I6
sI894
I3
sI895
I3
sI896
I8
sI897
I4
sI9090
I1
sI899
I5
sI900
I2
sI901
I2
sI902
I2
sI903
I2
sI904
I4
sI905
I2
sI906
I4
sI907
I2
sI908
I2
sI909
I2
sI910
I2
sI911
I6
sI912
I4
sI913
I1
sI914
I2
sI915
I2
sI916
I3
sI917
I2
sI918
I1
sI919
I4
sI920
I3
sI921
I5
sI922
I3
sI923
I1
sI924
I1
sI925
I2
sI926
I3
sI927
I2
sI928
I1
sI929
I3
sI930
I2
sI931
I3
sI932
I1
sI933
I2
sI934
I4
sI935
I5
sI936
I1
sI937
I1
sI938
I1
sI939
I2
sI940
I7
sI941
I3
sI942
I5
sI943
I2
sI944
I1
sI945
I2
sI946
I1
sI948
I2
sI949
I1
sI950
I2
sI951
I2
sI953
I3
sI954
I3
sI955
I1
sI956
I4
sI957
I2
sI958
I6
sI959
I3
sI960
I7
sI961
I2
sI962
I1
sI963
I2
sI964
I2
sI965
I1
sI966
I3
sI967
I3
sI968
I4
sI969
I5
sI970
I1
sI971
I1
sI972
I2
sI973
I4
sI974
I1
sI975
I4
sI976
I3
sI977
I3
sI978
I4
sI979
I2
sI980
I1
sI981
I2
sI982
I4
sI984
I2
sI985
I3
sI986
I4
sI987
I3
sI988
I1
sI989
I2
sI990
I5
sI991
I1
sI992
I2
sI993
I3
sI994
I7
sI995
I1
sI996
I1
sI997
I3
sI998
I1
sI999
I2
sI1000
I4
sI1001
I1
sI1002
I3
sI1003
I2
sI1004
I1
sI1005
I4
sI1006
I2
sI1007
I4
sI1008
I1
sI1009
I3
sI1011
I2
sI1012
I5
sI1013
I3
sI1014
I1
sI1015
I2
sI1016
I2
sI1017
I4
sI1018
I2
sI1019
I2
sI1020
I4
sI1022
I2
sI1023
I1
sI1024
I5
sI1025
I3
sI1026
I6
sI1028
I1
sI1029
I1
sI1030
I2
sI1031
I5
sI1032
I1
sI1033
I1
sI1034
I4
sI1036
I3
sI1037
I1
sI1039
I2
sI1040
I1
sI1041
I1
sI1042
I3
sI1043
I1
sI1044
I5
sI1046
I2
sI1047
I1
sI1048
I3
sI1050
I2
sI1051
I2
sI1052
I2
sI1053
I2
sI1054
I2
sI1056
I1
sI1057
I1
sI1058
I3
sI1059
I4
sI1060
I3
sI1061
I1
sI1062
I2
sI1064
I3
sI1065
I3
sI1066
I2
sI1067
I3
sI1068
I2
sI1069
I1
sI1070
I3
sI1071
I3
sI1073
I1
sI1074
I1
sI8371
I1
sI1076
I3
sI1077
I2
sI1078
I2
sI1079
I2
sI1080
I2
sI1081
I2
sI1082
I3
sI1084
I1
sI1085
I1
sI1086
I1
sI1087
I1
sI1088
I1
sI1089
I2
sI1090
I1
sI1091
I2
sI1092
I4
sI1093
I1
sI1094
I1
sI1096
I2
sI1097
I5
sI1098
I2
sI1100
I3
sI1101
I3
sI1102
I2
sI1103
I4
sI1104
I1
sI1105
I2
sI1106
I4
sI1107
I1
sI1108
I1
sI1109
I2
sI1111
I2
sI1112
I5
sI1113
I4
sI1114
I2
sI1115
I2
sI9308
I1
sI1117
I2
sI1118
I3
sI1120
I1
sI1121
I2
sI1122
I2
sI1123
I2
sI1124
I3
sI1125
I5
sI1126
I3
sI1127
I1
sI1128
I4
sI1129
I3
sI1130
I2
sI1131
I2
sI8221
I1
sI1133
I2
sI1134
I2
sI1135
I2
sI1136
I4
sI1137
I2
sI1138
I2
sI1139
I1
sI1140
I2
sI1141
I3
sI1142
I3
sI1143
I1
sI1144
I3
sI1145
I1
sI1146
I3
sI1147
I1
sI1148
I2
sI1149
I2
sI1150
I2
sI1151
I2
sI1153
I1
sI1154
I3
sI1156
I2
sI1157
I4
sI1160
I4
sI1161
I1
sI1162
I1
sI1163
I1
sI1164
I2
sI1165
I3
sI1167
I1
sI1168
I1
sI1169
I1
sI1170
I3
sI1172
I2
sI1173
I2
sI1174
I1
sI1175
I3
sI1177
I2
sI1178
I2
sI1179
I3
sI1180
I2
sI1182
I1
sI9375
I1
sI1184
I3
sI1185
I1
sI1187
I1
sI1188
I4
sI1189
I3
sI1190
I3
sI1191
I2
sI1192
I1
sI1564
I2
sI1194
I3
sI1195
I3
sI1196
I1
sI1197
I1
sI1199
I3
sI1200
I1
sI1201
I3
sI1202
I2
sI1203
I2
sI1204
I3
sI1205
I1
sI1206
I2
sI1207
I4
sI1209
I2
sI1210
I1
sI1211
I2
sI1212
I4
sI1213
I4
sI1214
I1
sI1215
I1
sI1216
I1
sI1218
I4
sI1219
I2
sI1220
I3
sI1221
I1
sI1222
I2
sI1223
I3
sI1224
I3
sI1225
I3
sI1227
I1
sI1228
I1
sI1229
I2
sI1230
I1
sI1231
I1
sI1232
I2
sI1233
I1
sI1234
I3
sI1235
I2
sI1236
I1
sI1237
I1
sI1238
I1
sI1239
I2
sI1240
I1
sI1241
I6
sI1242
I3
sI1243
I3
sI1244
I2
sI1245
I4
sI1248
I1
sI1249
I2
sI1250
I1
sI1251
I2
sI1252
I3
sI1253
I1
sI1254
I2
sI1255
I3
sI1256
I1
sI1258
I3
sI1260
I1
sI1261
I1
sI1262
I1
sI1263
I3
sI1264
I2
sI1265
I1
sI1266
I3
sI1267
I3
sI1268
I6
sI1269
I2
sI1270
I1
sI1272
I2
sI1273
I3
sI1274
I2
sI1276
I3
sI1277
I2
sI1278
I3
sI1279
I2
sI1280
I1
sI1282
I3
sI1283
I3
sI1284
I2
sI1285
I1
sI1287
I4
sI1288
I2
sI1289
I3
sI1290
I1
sI1291
I2
sI1292
I1
sI1293
I2
sI1294
I3
sI1295
I1
sI1296
I3
sI1297
I3
sI1298
I3
sI1299
I1
sI1300
I4
sI1301
I2
sI1302
I2
sI1303
I1
sI1304
I1
sI1306
I3
sI1309
I2
sI1311
I1
sI1312
I3
sI1313
I4
sI1314
I3
sI1315
I1
sI1316
I1
sI1317
I3
sI1318
I2
sI1321
I1
sI1322
I2
sI1323
I4
sI1324
I1
sI1326
I1
sI1327
I1
sI1329
I2
sI1330
I2
sI1331
I4
sI1332
I2
sI1333
I1
sI1334
I3
sI1335
I2
sI1336
I1
sI1337
I4
sI1338
I2
sI1339
I1
sI1341
I1
sI1342
I2
sI1345
I3
sI1346
I1
sI1348
I4
sI1350
I3
sI1351
I1
sI1353
I1
sI1354
I3
sI1356
I2
sI1357
I2
sI1358
I1
sI1359
I2
sI1360
I2
sI1361
I1
sI1362
I3
sI1365
I2
sI1366
I1
sI1368
I1
sI1369
I1
sI1371
I1
sI1372
I1
sI1373
I1
sI1374
I3
sI1377
I2
sI1379
I1
sI1382
I1
sI1383
I1
sI1384
I2
sI1385
I1
sI1386
I2
sI4327
I1
sI1388
I2
sI1389
I1
sI1390
I1
sI1391
I1
sI1392
I1
sI1395
I3
sI1396
I1
sI1397
I1
sI1399
I1
sI1400
I3
sI1402
I2
sI1404
I1
sI1405
I2
sI1410
I2
sI1411
I1
sI1413
I1
sI1414
I1
sI1415
I2
sI1417
I3
sI1418
I2
sI1419
I1
sI1420
I1
sI1421
I4
sI1422
I1
sI1423
I1
sI1425
I2
sI1427
I1
sI1429
I1
sI1431
I2
sI1433
I1
sI1434
I1
sI8431
I1
sI1438
I2
sI1439
I1
sI1440
I2
sI1442
I1
sI1443
I2
sI1444
I2
sI1445
I3
sI1446
I1
sI1447
I2
sI1448
I1
sI1449
I2
sI1450
I1
sI1451
I1
sI1452
I1
sI1453
I2
sI1456
I2
sI1457
I1
sI1458
I3
sI1459
I3
sI1462
I2
sI1463
I1
sI1464
I2
sI1466
I2
sI1467
I1
sI1468
I1
sI1469
I1
sI1470
I1
sI1471
I2
sI1472
I2
sI1473
I3
sI1474
I1
sI1475
I1
sI1476
I2
sI1478
I1
sI1479
I2
sI1480
I1
sI1481
I1
sI17866
I1
sI1485
I2
sI1486
I2
sI1488
I1
sI1492
I6
sI1493
I1
sI1496
I1
sI1497
I2
sI1498
I2
sI1499
I2
sI1500
I1
sI1501
I1
sI1502
I2
sI1503
I2
sI1504
I2
sI1505
I1
sI1506
I2
sI1507
I3
sI1509
I2
sI1510
I2
sI1511
I2
sI1512
I1
sI1514
I2
sI1516
I3
sI1517
I1
sI1518
I2
sI1519
I1
sI1522
I3
sI1523
I1
sI1524
I3
sI1525
I1
sI1527
I2
sI1528
I1
sI1529
I1
sI1532
I1
sI1536
I1
sI1538
I1
sI1539
I2
sI1541
I1
sI1542
I1
sI1544
I2
sI1547
I1
sI1549
I2
sI1550
I1
sI1624
I1
sI1555
I2
sI1556
I2
sI1557
I2
sI1558
I1
sI1561
I1
sI1562
I1
sI17948
I1
sI1567
I1
sI1569
I3
sI1572
I2
sI1573
I2
sI1575
I1
sI1578
I1
sI1579
I1
sI1580
I1
sI1581
I3
sI1583
I3
sI1584
I1
sI1585
I1
sI1586
I1
sI17971
I1
sI1589
I1
sI1590
I3
sI1591
I1
sI1592
I1
sI1593
I2
sI1595
I2
sI1596
I1
sI1597
I2
sI1599
I1
sI1600
I1
sI1601
I1
sI1602
I2
sI1603
I2
sI1604
I3
sI1606
I1
sI1607
I2
sI1609
I1
sI1610
I1
sI1612
I1
sI1615
I3
sI1617
I1
sI1618
I2
sI1620
I1
sI1622
I1
sI9816
I1
sI1626
I2
sI1627
I2
sI1628
I2
sI1629
I1
sI1630
I2
sI1632
I1
sI1633
I1
sI1635
I1
sI1637
I2
sI1639
I3
sI1640
I1
sI1641
I2
sI1643
I1
sI1644
I1
sI33042
I1
sI1646
I2
sI1648
I1
sI1649
I1
sI1650
I1
sI1651
I1
sI1655
I2
sI1657
I1
sI1658
I1
sI1659
I3
sI1664
I1
sI1665
I1
sI1666
I2
sI1668
I2
sI1670
I1
sI1671
I2
sI1672
I1
sI1678
I2
sI1645
I2
sI1680
I1
sI1681
I1
sI1683
I2
sI1684
I1
sI1685
I2
sI1687
I2
sI1688
I1
sI1690
I1
sI1691
I1
sI1692
I1
sI1693
I1
sI1695
I1
sI1698
I2
sI1699
I3
sI1700
I1
sI1701
I3
sI1703
I1
sI1706
I1
sI1708
I1
sI1713
I1
sI1714
I1
sI1715
I1
sI1716
I1
sI1719
I1
sI1720
I1
sI1725
I2
sI1726
I2
sI1727
I2
sI1728
I1
sI1729
I1
sI1731
I1
sI1732
I1
sI1733
I1
sI1734
I1
sI1735
I1
sI1736
I1
sI1740
I1
sI1741
I3
sI1742
I1
sI1744
I1
sI1745
I1
sI1746
I1
sI1747
I3
sI1748
I1
sI1750
I2
sI1752
I1
sI1754
I1
sI1755
I2
sI1757
I3
sI1759
I1
sI1761
I1
sI1763
I1
sI1764
I2
sI1768
I1
sI1772
I1
sI1776
I1
sI1777
I1
sI1779
I1
sI2787
I1
sI1785
I1
sI1787
I1
sI1790
I2
sI1791
I1
sI1792
I1
sI1793
I2
sI4395
I1
sI1800
I3
sI1801
I1
sI1802
I1
sI1804
I1
sI1805
I2
sI1806
I1
sI1808
I1
sI1810
I1
sI1812
I2
sI1814
I4
sI1815
I2
sI1816
I2
sI1818
I1
sI1819
I1
sI1820
I1
sI10017
I1
sI1827
I1
sI1830
I1
sI1833
I2
sI1834
I2
sI1837
I2
sI1838
I2
sI1840
I1
sI1842
I1
sI1843
I2
sI1845
I1
sI1847
I2
sI1848
I1
sI1850
I1
sI1851
I1
sI1853
I1
sI1855
I1
sI1857
I2
sI1858
I1
sI1859
I1
sI18246
I1
sI1863
I1
sI1869
I1
sI1872
I1
sI2238289
I1
sI1875
I1
sI1878
I1
sI1879
I1
sI1880
I1
sI1882
I1
sI1679
I1
sI1885
I2
sI10079
I1
sI1888
I2
sI1889
I1
sI1890
I1
sI1891
I1
sI1894
I1
sI1896
I1
sI1897
I1
sI1900
I1
sI1909
I1
sI1911
I1
sI1914
I1
sI1916
I1
sI1918
I2
sI1920
I2
sI1921
I1
sI1922
I1
sI1923
I2
sI1924
I1
sI1925
I2
sI1928
I2
sI1930
I1
sI9879
I1
sI1932
I1
sI1933
I1
sI1934
I2
sI1936
I1
sI1937
I2
sI1938
I1
sI1940
I2
sI1941
I1
sI1946
I1
sI1949
I1
sI1951
I1
sI1953
I1
sI10146
I1
sI1955
I1
sI1958
I2
sI1959
I1
sI1960
I2
sI1961
I1
sI1965
I2
sI1966
I1
sI1968
I1
sI1969
I3
sI1971
I2
sI18358
I1
sI1977
I1
sI1979
I2
sI1982
I1
sI1984
I1
sI8523
I1
sI1988
I1
sI1990
I1
sI1994
I1
sI1995
I1
sI1996
I1
sI1997
I1
sI1998
I1
sI2001
I1
sI2003
I2
sI2004
I2
sI2009
I1
sI10203
I1
sI2013
I1
sI2015
I1
sI2016
I1
sI2018
I1
sI2020
I2
sI2022
I1
sI2023
I1
sI10216
I1
sI2027
I1
sI2029
I1
sI2030
I1
sI2032
I1
sI2033
I1
sI2037
I2
sI2041
I1
sI2046
I2
sI2047
I1
sI2049
I1
sI2051
I3
sI2052
I3
sI2054
I1
sI9900
I1
sI2059
I1
sI2060
I1
sI2061
I1
sI2064
I1
sI2068
I2
sI2069
I1
sI2071
I1
sI2072
I2
sI2077
I2
sI2080
I2
sI2081
I1
sI2082
I1
sI2083
I1
sI2084
I1
sI2086
I1
sI2087
I1
sI2088
I1
sI2089
I1
sI2092
I1
sI2104
I1
sI2108
I1
sI2113
I1
sI2116
I1
sI2117
I1
sI2119
I2
sI2123
I1
sI2125
I2
sI2127
I1
sI11278
I1
sI2135
I2
sI10330
I1
sI10331
I1
sI1435
I1
sI2145
I1
sI2150
I1
sI18537
I1
sI2155
I2
sI2156
I2
sI2157
I1
sI2159
I1
sI2163
I1
sI2167
I1
sI2168
I1
sI2169
I2
sI2173
I2
sI2177
I1
sI2184
I1
sI2186
I1
sI2189
I1
sI2194
I1
sI2199
I1
sI2204
I1
sI2207
I1
sI2211
I1
sI2215
I1
sI2216
I1
sI2217
I1
sI2223
I1
sI2229
I1
sI2237
I1
sI2238
I1
sI2239
I1
sI2240
I1
sI2241
I1
sI2243
I1
sI2246
I1
sI2249
I1
sI2260
I1
sI2264
I1
sI2265
I1
sI2268
I1
sI2270
I1
sI2271
I1
sI2272
I1
sI2275
I1
sI2280
I1
sI2281
I1
sI2282
I1
sI2284
I1
sI382
I13
sI2294
I1
sI2296
I1
sI2300
I1
sI2302
I1
sI18688
I1
sI2305
I1
sI2307
I2
sI2309
I1
sI2310
I2
sI2317
I2
sI2326
I1
sI2327
I1
sI2331
I1
sI2333
I1
sI2334
I1
sI2335
I1
sI2336
I2
sI2342
I1
sI2343
I1
sI2345
I1
sI2348
I1
sI2350
I1
sI2352
I2
sI2353
I2
sI2354
I1
sI2356
I1
sI2359
I1
sI2365
I1
sI2368
I1
sI10564
I1
sI2386
I1
sI2387
I2
sI2391
I1
sI2394
I1
sI2395
I1
sI2397
I1
sI18783
I1
sI2401
I1
sI2406
I1
sI2409
I1
sI2410
I1
sI2413
I2
sI2416
I1
sI2420
I1
sI2427
I1
sI2428
I1
sI12356
I1
sI2444
I1
sI18836
I1
sI10647
I1
sI18847
I1
sI2466
I1
sI51621
I1
sI2473
I1
sI2474
I1
sI2476
I1
sI2477
I1
sI18862
I1
sI2479
I1
sI2482
I1
sI2494
I2
sI2495
I2
sI2497
I1
sI10692
I1
sI2504
I1
sI2506
I1
sI1783
I1
sI2508
I1
sI2516
I1
sI2526
I1
sI2529
I1
sI2535
I1
sI2536
I1
sI2542
I1
sI2547
I1
sI2549
I1
sI2551
I2
sI2552
I1
sI3156
I1
sI2556
I1
sI2560
I1
sI2561
I1
sI8619
I1
sI2564
I1
sI2565
I1
sI2569
I1
sI2572
I1
sI2573
I2
sI8269
I1
sI2576
I1
sI1795
I1
sI2580
I1
sI2581
I2
sI2588
I1
sI2591
I1
sI2593
I1
sI27173
I1
sI2599
I1
sI2600
I1
sI2613
I1
sI2615
I1
sI2617
I1
sI19002
I1
sI2620
I1
sI2623
I1
sI2624
I1
sI2625
I1
sI10819
I1
sI2642
I1
sI10837
I1
sI2651
I2
sI2652
I1
sI2653
I1
sI2655
I2
sI2658
I1
sI2659
I1
sI2660
I1
sI2667
I1
sI2668
I2
sI2669
I1
sI2676
I1
sI2678
I1
sI2680
I1
sI2684
I2
sI2692
I1
sI82369
I1
sI2697
I1
sI2703
I1
sI2708
I2
sI10901
I1
sI2713
I1
sI2714
I1
sI2716
I1
sI2717
I1
sI2724
I1
sI10917
I1
sI11377
I1
sI2729
I1
sI2730
I1
sI2732
I1
sI2737
I1
sI2745
I1
sI2746
I2
sI2752
I1
sI1825
I2
sI19146
I1
sI2763
I1
sI2768
I1
sI2769
I1
sI2770
I1
sI2772
I1
sI2775
I1
sI2784
I1
sI10979
I1
sI2795
I1
sI2796
I1
sI2797
I1
sI19581
I1
sI2801
I1
sI2805
I1
sI19193
I1
sI2810
I1
sI8663
I1
sI2828
I1
sI2830
I1
sI16856
I1
sI2837
I2
sI2839
I1
sI2841
I1
sI2843
I2
sI25051
I1
sI2854
I1
sI19239
I1
sI2856
I1
sI2857
I1
sI2859
I1
sI2863
I1
sI2864
I1
sI2865
I1
sI2880
I1
sI2893
I1
sI2895
I1
sI2900
I1
sI2902
I2
sI2914
I1
sI2915
I1
sI2925
I1
sI2932
I1
sI11127
I1
sI2943
I1
sI2951
I1
sI2957
I2
sI2961
I1
sI19350
I1
sI2971
I1
sI2976
I1
sI2977
I1
sI2990
I1
sI2992
I1
sI2994
I1
sI3010
I1
sI3012
I1
sI3019
I1
sI3026
I1
sI3033
I1
sI3035
I1
sI3036
I1
sI3040
I1
sI3042
I1
sI3043
I2
sI3046
I2
sI3050
I1
sI3054
I2
sI3060
I1
sI3063
I1
sI3069
I1
sI3081
I1
sI3084
I1
sI3086
I1
sI3092
I1
sI3093
I1
sI3094
I1
sI3102
I1
sI16551
I1
sI3111
I1
sI3131
I1
sI3140
I1
sI16908
I1
sI3148
I1
sI3153
I1
sI19538
I1
sI3155
I1
sI30111
I1
sI3160
I1
sI2833
I1
sI3169
I1
sI3176
I1
sI3180
I1
sI3182
I1
sI3185
I1
sI3186
I1
sI3188
I1
sI3195
I1
sI3197
I1
sI11391
I1
sI3205
I1
sI3265
I1
sI3210
I1
sI3212
I1
sI3214
I1
sI3215
I1
sI3217
I1
sI3221
I1
sI11414
I1
sI3229
I1
sI8731
I1
sI3240
I1
sI3245
I1
sI3246
I1
sI3248
I1
sI3249
I1
sI3251
I1
sI11457
I1
sI3266
I1
sI8737
I1
sI3276
I1
sI3277
I1
sI11472
I1
sI11478
I1
sI11480
I1
sI3293
I1
sI3294
I1
sI3300
I1
sI3307
I2
sI3308
I1
sI3309
I1
sI3317
I1
sI3325
I1
sI3326
I1
sI3330
I1
sI3332
I1
sI3333
I1
sI11549
I1
sI3358
I2
sI3360
I1
sI3372
I1
sI3377
I1
sI3380
I2
sI3382
I2
sI3383
I1
sI3390
I2
sI11593
I1
sI3409
I1
sI3410
I1
sI3412
I1
sI3414
I1
sI3428
I1
sI3431
I1
sI3436
I1
sI3439
I1
sI3444
I1
sI3447
I1
sI3462
I1
sI8770
I1
sI3472
I1
sI3486
I1
sI3487
I1
sI1387
I1
sI36280
I1
sI3516
I1
sI3518
I1
sI11712
I1
sI3522
I1
sI3526
I1
sI3538
I1
sI590
I4
sI1482
I1
sI3563
I1
sI3569
I1
sI3572
I1
sI3578
I1
sI11780
I1
sI3593
I1
sI3598
I1
sI3603
I1
sI3607
I1
sI3610
I1
sI3614
I1
sI3618
I1
sI3621
I2
sI3631
I1
sI3635
I1
sI3636
I2
sI3637
I1
sI3650
I1
sI3655
I1
sI3660
I1
sI3673
I1
sI3678
I1
sI3679
I1
sI8806
I1
sI3686
I1
sI617
I1
sI3707
I1
sI3710
I1
sI3712
I1
sI3714
I1
sI3743
I3
sI12915
I1
sI52918
I1
sI3769
I1
sI3776
I1
sI167624
I1
sI3790
I1
sI3791
I2
sI34766
I1
sI3801
I1
sI3802
I1
sI3805
I1
sI3807
I2
sI3808
I1
sI3812
I2
sI3830
I1
sI8311
I1
sI3837
I1
sI3844
I1
sI3846
I1
sI3847
I1
sI3853
I1
sI20242
I1
sI3869
I1
sI3873
I1
sI3874
I1
sI3885
I1
sI3889
I1
sI7480
I1
sI3924
I1
sI3941
I1
sI3944
I1
sI3946
I1
sI10215
I1
sI3953
I1
sI12147
I1
sI3958
I1
sI3969
I1
sI3971
I1
sI3978
I1
sI4002
I1
sI4007
I1
sI4009
I1
sI4012
I1
sI4013
I1
sI4014
I1
sI4029
I1
sI4039
I1
sI4044
I1
sI20431
I1
sI4051
I1
sI4052
I1
sI4058
I1
sI4062
I1
sI4075
I1
sI4077
I1
sI12272
I1
sI4083
I1
sI4089
I1
sI4090
I1
sI4093
I1
sI4100
I1
sI4103
I1
sI4104
I1
sI4105
I1
sI4115
I1
sI4131
I1
sI8881
I1
sI4145
I1
sI4154
I1
sI4160
I1
sI4164
I1
sI4167
I1
sI4179
I1
sI4183
I1
sI4185
I1
sI4186
I1
sI20590
I1
sI4212
I1
sI20600
I1
sI4217
I1
sI25279
I1
sI4222
I1
sI4223
I1
sI4230
I1
sI4234
I1
sI4237
I1
sI4245
I1
sI4247
I1
sI4250
I1
sI17096
I1
sI4278
I1
sI4280
I1
sI4295
I1
sI4297
I1
sI4300
I1
sI4304
I2
sI25295
I1
sI4319
I1
sI4320
I1
sI4325
I1
sI4326
I1
sI721
I5
sI20717
I1
sI4344
I1
sI4354
I1
sI12561
I1
sI4373
I1
sI12587
I1
sI4398
I1
sI4400
I1
sI4402
I1
sI8929
I1
sI4455
I1
sI34246
I1
sI29038
I1
sI4470
I1
sI4471
I1
sI16516
I1
sI17132
I1
sI4498
I1
sI12704
I1
sI4541
I1
sI4548
I1
sI4576
I1
sI12773
I1
sI4609
I1
sI8961
I1
sI12837
I1
sI4692
I1
sI4696
I1
sI4699
I1
sI4703
I1
sI4716
I1
sI4723
I1
sI12937
I1
sI793
I8
sI4760
I1
sI4764
I1
sI4776
I1
sI12981
I1
sI4796
I1
sI4805
I1
sI13008
I1
sI4819
I1
sI4824
I1
sI4840
I1
sI4853
I1
sI21260
I1
sI4878
I1
sI4891
I2
sI4893
I1
sI4916
I1
sI13803
I1
sI4936
I1
sI4960
I1
sI9019
I1
sI8622
I1
sI4992
I1
sI4995
I1
sI4996
I2
sI17217
I1
sI21401
I1
sI5025
I1
sI5033
I1
sI5061
I1
sI5069
I1
sI5070
I1
sI13263
I1
sI5093
I1
sI851
I2
sI5152
I1
sI5158
I1
sI42453
I1
sI5171
I1
sI5176
I1
sI5628
I1
sI5206
I1
sI5209
I1
sI5230
I1
sI13428
I1
sI5244
I1
sI21636
I1
sI38022
I1
sI5256
I1
sI877
I3
sI13461
I1
sI5285
I1
sI5290
I1
sI5294
I1
sI5297
I1
sI5311
I3
sI5317
I1
sI5323
I1
sI5326
I1
sI5327
I1
sI888
I2
sI5356
I2
sI5360
I1
sI898
I3
sI5397
I1
sI5419
I1
sI5427
I1
sI5436
I1
sI5437
I1
sI5443
I1
sI5494
I1
sI5496
I1
sI13699
I1
sI5017
I1
sI5533
I2
sI5535
I1
sI21920
I1
sI5559
I1
sI5571
I1
sI5580
I1
sI5604
I1
sI5610
I1
sI5611
I1
sI7763
I1
sI13820
I1
sI202244
I1
sI22022
I1
sI13849
I1
sI5660
I1
sI5672
I1
sI5674
I1
sI5681
I1
sI5685
I1
sI5691
I1
sI161351
I1
sI13904
I1
sI5718
I1
sI5746
I1
sI13942
I1
sI5756
I1
sI9152
I1
sI5764
I2
sI5766
I1
sI30355
I1
sI5782
I1
sI5783
I1
sI5788
I1
sI5798
I1
sI13998
I1
sI14000
I1
sI5827
I1
sI5847
I1
sI16429
I1
sI5883
I2
sI14090
I1
sI9176
I1
sI5916
I1
sI5921
I1
sI5935
I1
sI5982
I1
sI5983
I1
sI14183
I1
sI5997
I1
sI137086
I1
sI6043
I1
sI22450
I1
sI6069
I1
sI33781
I1
sI6083
I1
sI79815
I1
sI6097
I1
sI6109
I1
sI6122
I1
sI16571
I1
sI6136
I1
sI6137
I1
sI14348
I1
sI14366
I1
sI6189
I1
sI2399
I1
sI6212
I1
sI6224
I1
sI2935
I1
sI14444
I1
sI6293
I1
sI6309
I1
sI24264
I1
sI6324
I1
sI22711
I1
sI22716
I1
sI6342
I1
sI14547
I1
sI22761
I1
sI6391
I1
sI6443
I1
sI14637
I1
sI31022
I1
sI14643
I1
sI6461
I1
sI6469
I1
sI6487
I1
sI6512
I1
sI14705
I1
sI2455
I1
sI17478
I1
sI6572
I1
sI14792
I1
sI6614
I1
sI14828
I1
sI6640
I1
sI31228
I1
sI2478
I1
sI6688
I1
sI6696
I1
sI1116
I3
sI14895
I1
sI4315
I1
sI6748
I1
sI9323
I1
sI14983
I1
sI1132
I2
sI6796
I1
sI6804
I1
sI6831
I1
sI6880
I2
sI15082
I1
sI6900
I1
sI15110
I1
sI6942
I1
sI15145
I1
sI7009
I1
sI7018
I1
sI15226
I1
sI23425
I1
sI15234
I1
sI14832
I1
sI15266
I1
sI17563
I1
sI105387
I1
sI15276
I1
sI1183
I1
sI15304
I1
sI7125
I1
sI41156
I1
sI48156
I1
sI9787
I1
sI7214
I1
sI89160
I1
sI7263
I1
sI7373
I1
sI15597
I1
sI15603
I1
sI163069
I1
sI15635
I1
sI7453
I1
sI7456
I1
sI7466
I1
sI48430
I1
sI64824
I1
sI7481
I1
sI10805
I1
sI19001
I1
sI7513
I1
sI7528
I1
sI64889
I1
sI7557
I1
sI15757
I1
sI7585
I1
sI528
I9
sI15882
I1
sI56851
I1
sI15902
I1
sI7718
I1
sI15913
I1
sI7752
I1
sI19043
I1
sI114266
I1
sI7820
I1
sI24220
I1
sI7843
I1
sI16044
I1
sI7854
I1
sI32439
I1
sI16070
I1
sI16072
I1
sI16080
I1
sI24292
I1
sI17702
I1
sI16125
I1
sI9267
I1
sI7970
I1
sI8051
I1
sI8057
I1
sI8107
I1
sI90033
I1
sI2725
I1
sI2727
I1
sI25938
I1
sI19113
I1
s.